
freertos.elf:     file format elf32-littlearm


Disassembly of section .init:

00008000 <_start>:
    8000:	e1a0c00f 	mov	ip, pc
    8004:	e10f0000 	mrs	r0, CPSR
    8008:	e38000c0 	orr	r0, r0, #192	; 0xc0
    800c:	e200b01f 	and	fp, r0, #31
    8010:	e35b001a 	cmp	fp, #26
    8014:	1a000005 	bne	8030 <.NotInHypMode>
    8018:	e3c0001f 	bic	r0, r0, #31
    801c:	e3800013 	orr	r0, r0, #19
    8020:	e16ff000 	msr	SPSR_fsxc, r0
    8024:	e28fe004 	add	lr, pc, #4
    8028:	e12ef30e 	.word	0xe12ef30e
    802c:	e160006e 	.word	0xe160006e

00008030 <.NotInHypMode>:
    8030:	e59f2238 	ldr	r2, [pc, #568]	; 8270 <hang+0x4>
    8034:	e59f3238 	ldr	r3, [pc, #568]	; 8274 <hang+0x8>
    8038:	e59f4238 	ldr	r4, [pc, #568]	; 8278 <hang+0xc>
    803c:	e59f5238 	ldr	r5, [pc, #568]	; 827c <hang+0x10>
    8040:	ee106f10 	mrc	15, 0, r6, cr0, cr0, {0}
    8044:	e59f7234 	ldr	r7, [pc, #564]	; 8280 <hang+0x14>
    8048:	e1560007 	cmp	r6, r7
    804c:	0a000013 	beq	80a0 <set_svc_stack>
    8050:	ee106fb0 	mrc	15, 0, r6, cr0, cr0, {5}
    8054:	e2166003 	ands	r6, r6, #3
    8058:	0a000010 	beq	80a0 <set_svc_stack>
    805c:	e3560003 	cmp	r6, #3
    8060:	0a00000b 	beq	8094 <core3_stack_setup>
    8064:	e3560002 	cmp	r6, #2
    8068:	0a000004 	beq	8080 <core2_stack_setup>
    806c:	e59f2210 	ldr	r2, [pc, #528]	; 8284 <hang+0x18>
    8070:	e59f3210 	ldr	r3, [pc, #528]	; 8288 <hang+0x1c>
    8074:	e59f4210 	ldr	r4, [pc, #528]	; 828c <hang+0x20>
    8078:	e59f5210 	ldr	r5, [pc, #528]	; 8290 <hang+0x24>
    807c:	ea000007 	b	80a0 <set_svc_stack>

00008080 <core2_stack_setup>:
    8080:	e59f220c 	ldr	r2, [pc, #524]	; 8294 <hang+0x28>
    8084:	e59f320c 	ldr	r3, [pc, #524]	; 8298 <hang+0x2c>
    8088:	e59f420c 	ldr	r4, [pc, #524]	; 829c <hang+0x30>
    808c:	e59f520c 	ldr	r5, [pc, #524]	; 82a0 <hang+0x34>
    8090:	ea000002 	b	80a0 <set_svc_stack>

00008094 <core3_stack_setup>:
    8094:	e59f2208 	ldr	r2, [pc, #520]	; 82a4 <hang+0x38>
    8098:	e59f3208 	ldr	r3, [pc, #520]	; 82a8 <hang+0x3c>
    809c:	e59f4208 	ldr	r4, [pc, #520]	; 82ac <hang+0x40>

000080a0 <set_svc_stack>:
    80a0:	e3c0001f 	bic	r0, r0, #31
    80a4:	e3800013 	orr	r0, r0, #19
    80a8:	e121f000 	msr	CPSR_c, r0
    80ac:	e1a0d002 	mov	sp, r2
    80b0:	e3c0001f 	bic	r0, r0, #31
    80b4:	e3800011 	orr	r0, r0, #17
    80b8:	e121f000 	msr	CPSR_c, r0
    80bc:	e1a0d003 	mov	sp, r3
    80c0:	e3c0001f 	bic	r0, r0, #31
    80c4:	e3800012 	orr	r0, r0, #18
    80c8:	e121f000 	msr	CPSR_c, r0
    80cc:	e1a0d004 	mov	sp, r4
    80d0:	e3c0001f 	bic	r0, r0, #31
    80d4:	e380001f 	orr	r0, r0, #31
    80d8:	e121f000 	msr	CPSR_c, r0
    80dc:	e1a0d005 	mov	sp, r5
    80e0:	e3c0001f 	bic	r0, r0, #31
    80e4:	e3800013 	orr	r0, r0, #19
    80e8:	e121f000 	msr	CPSR_c, r0
    80ec:	ee110f10 	mrc	15, 0, r0, cr1, cr0, {0}
    80f0:	e3800b02 	orr	r0, r0, #2048	; 0x800
    80f4:	e3800004 	orr	r0, r0, #4
    80f8:	e3800a01 	orr	r0, r0, #4096	; 0x1000
    80fc:	ee010f10 	mcr	15, 0, r0, cr1, cr0, {0}
    8100:	ee100f10 	mrc	15, 0, r0, cr0, cr0, {0}
    8104:	e59f1174 	ldr	r1, [pc, #372]	; 8280 <hang+0x14>
    8108:	e1510000 	cmp	r1, r0
    810c:	0a000007 	beq	8130 <.cpu0_exit_multicore_park>
    8110:	ee100fb0 	mrc	15, 0, r0, cr0, cr0, {5}
    8114:	e2100003 	ands	r0, r0, #3
    8118:	0a000004 	beq	8130 <.cpu0_exit_multicore_park>
    811c:	e59f118c 	ldr	r1, [pc, #396]	; 82b0 <hang+0x44>
    8120:	e5910000 	ldr	r0, [r1]
    8124:	e2800001 	add	r0, r0, #1
    8128:	e5810000 	str	r0, [r1]
    812c:	ea00007d 	b	8328 <SecondarySpin>

00008130 <.cpu0_exit_multicore_park>:
    8130:	e59f117c 	ldr	r1, [pc, #380]	; 82b4 <hang+0x48>
    8134:	e24cc008 	sub	ip, ip, #8
    8138:	e581c000 	str	ip, [r1]
    813c:	e59f1174 	ldr	r1, [pc, #372]	; 82b8 <hang+0x4c>
    8140:	e581b000 	str	fp, [r1]
    8144:	e3a00001 	mov	r0, #1
    8148:	e59f1160 	ldr	r1, [pc, #352]	; 82b0 <hang+0x44>
    814c:	e5810000 	str	r0, [r1]
    8150:	e10f2000 	mrs	r2, CPSR
    8154:	e202201f 	and	r2, r2, #31
    8158:	e59f115c 	ldr	r1, [pc, #348]	; 82bc <hang+0x50>
    815c:	e5812000 	str	r2, [r1]
    8160:	e59f1158 	ldr	r1, [pc, #344]	; 82c0 <hang+0x54>
    8164:	ee100f10 	mrc	15, 0, r0, cr0, cr0, {0}
    8168:	e5810000 	str	r0, [r1]
    816c:	e0200000 	eor	r0, r0, r0
    8170:	e3a00007 	mov	r0, #7
    8174:	e3800080 	orr	r0, r0, #128	; 0x80
    8178:	e59f1144 	ldr	r1, [pc, #324]	; 82c4 <hang+0x58>
    817c:	e5810000 	str	r0, [r1]
    8180:	e3a02202 	mov	r2, #536870912	; 0x20000000
    8184:	e3a03101 	mov	r3, #1073741824	; 0x40000000
    8188:	e59f1138 	ldr	r1, [pc, #312]	; 82c8 <hang+0x5c>
    818c:	e59f0138 	ldr	r0, [pc, #312]	; 82cc <hang+0x60>
    8190:	e5900000 	ldr	r0, [r0]
    8194:	e1510000 	cmp	r1, r0
    8198:	0a000001 	beq	81a4 <.Is_a_Pi1>
    819c:	e3a0243f 	mov	r2, #1056964608	; 0x3f000000
    81a0:	e3a03103 	mov	r3, #-1073741824	; 0xc0000000

000081a4 <.Is_a_Pi1>:
    81a4:	e59f1124 	ldr	r1, [pc, #292]	; 82d0 <hang+0x64>
    81a8:	e5812000 	str	r2, [r1]
    81ac:	e59f1120 	ldr	r1, [pc, #288]	; 82d4 <hang+0x68>
    81b0:	e5813000 	str	r3, [r1]
    81b4:	e59f011c 	ldr	r0, [pc, #284]	; 82d8 <hang+0x6c>
    81b8:	e3a01000 	mov	r1, #0
    81bc:	e8b003fc 	ldm	r0!, {r2, r3, r4, r5, r6, r7, r8, r9}
    81c0:	e8a103fc 	stmia	r1!, {r2, r3, r4, r5, r6, r7, r8, r9}
    81c4:	e8b003fc 	ldm	r0!, {r2, r3, r4, r5, r6, r7, r8, r9}
    81c8:	e8a103fc 	stmia	r1!, {r2, r3, r4, r5, r6, r7, r8, r9}
    81cc:	e59f0108 	ldr	r0, [pc, #264]	; 82dc <hang+0x70>
    81d0:	e59f1108 	ldr	r1, [pc, #264]	; 82e0 <hang+0x74>
    81d4:	e3a02000 	mov	r2, #0

000081d8 <.clear_bss>:
    81d8:	e1500001 	cmp	r0, r1
    81dc:	aa000002 	bge	81ec <.clear_bss_exit>
    81e0:	e5802000 	str	r2, [r0]
    81e4:	e2800004 	add	r0, r0, #4
    81e8:	eafffffa 	b	81d8 <.clear_bss>

000081ec <.clear_bss_exit>:
    81ec:	ee100f10 	mrc	15, 0, r0, cr0, cr0, {0}
    81f0:	e59f1088 	ldr	r1, [pc, #136]	; 8280 <hang+0x14>
    81f4:	e1510000 	cmp	r1, r0
    81f8:	0a00001a 	beq	8268 <.NoMultiCoreSetup>
    81fc:	e59f10b0 	ldr	r1, [pc, #176]	; 82b4 <hang+0x48>
    8200:	e5910000 	ldr	r0, [r1]
    8204:	e3a01902 	mov	r1, #32768	; 0x8000
    8208:	e1510000 	cmp	r1, r0
    820c:	1a000015 	bne	8268 <.NoMultiCoreSetup>
    8210:	e3a01101 	mov	r1, #1073741824	; 0x40000000
    8214:	e59f20c8 	ldr	r2, [pc, #200]	; 82e4 <hang+0x78>
    8218:	e581209c 	str	r2, [r1, #156]	; 0x9c
    821c:	e320f004 	sev
    8220:	e59f3088 	ldr	r3, [pc, #136]	; 82b0 <hang+0x44>

00008224 <.WaitCore1ACK>:
    8224:	e5931000 	ldr	r1, [r3]
    8228:	e3510002 	cmp	r1, #2
    822c:	1afffffc 	bne	8224 <.WaitCore1ACK>
    8230:	e3a01101 	mov	r1, #1073741824	; 0x40000000
    8234:	e59f20a8 	ldr	r2, [pc, #168]	; 82e4 <hang+0x78>
    8238:	e58120ac 	str	r2, [r1, #172]	; 0xac
    823c:	e320f004 	sev

00008240 <.WaitCore2ACK>:
    8240:	e5931000 	ldr	r1, [r3]
    8244:	e3510003 	cmp	r1, #3
    8248:	1afffffc 	bne	8240 <.WaitCore2ACK>
    824c:	e3a01101 	mov	r1, #1073741824	; 0x40000000
    8250:	e59f208c 	ldr	r2, [pc, #140]	; 82e4 <hang+0x78>
    8254:	e58120bc 	str	r2, [r1, #188]	; 0xbc
    8258:	e320f004 	sev

0000825c <.WaitCore3ACK>:
    825c:	e5931000 	ldr	r1, [r3]
    8260:	e3510004 	cmp	r1, #4
    8264:	1afffffc 	bne	825c <.WaitCore3ACK>

00008268 <.NoMultiCoreSetup>:
    8268:	eb0016d0 	bl	ddb0 <main>

0000826c <hang>:
    826c:	eafffffe 	b	826c <hang>
    8270:	000179c0 	.word	0x000179c0
    8274:	0000f9c0 	.word	0x0000f9c0
    8278:	0000f7c0 	.word	0x0000f7c0
    827c:	0001f9c0 	.word	0x0001f9c0
    8280:	410fb767 	.word	0x410fb767
    8284:	0001ffc0 	.word	0x0001ffc0
    8288:	0001fdc0 	.word	0x0001fdc0
    828c:	0001fbc0 	.word	0x0001fbc0
    8290:	000201c0 	.word	0x000201c0
    8294:	000207c0 	.word	0x000207c0
    8298:	000205c0 	.word	0x000205c0
    829c:	000203c0 	.word	0x000203c0
    82a0:	000209c0 	.word	0x000209c0
    82a4:	00020fc0 	.word	0x00020fc0
    82a8:	00020dc0 	.word	0x00020dc0
    82ac:	00020bc0 	.word	0x00020bc0
    82b0:	0000f590 	.word	0x0000f590
    82b4:	0000f58c 	.word	0x0000f58c
    82b8:	0000f594 	.word	0x0000f594
    82bc:	0000f5a0 	.word	0x0000f5a0
    82c0:	0000f598 	.word	0x0000f598
    82c4:	0000f59c 	.word	0x0000f59c
    82c8:	4f54280a 	.word	0x4f54280a
    82cc:	20980040 	.word	0x20980040
    82d0:	0000f584 	.word	0x0000f584
    82d4:	0000f588 	.word	0x0000f588
    82d8:	000082e8 	.word	0x000082e8
    82dc:	000211c0 	.word	0x000211c0
    82e0:	000414a4 	.word	0x000414a4
    82e4:	00008000 	.word	0x00008000

000082e8 <_isr_Table>:
    82e8:	e59ff018 	ldr	pc, [pc, #24]	; 8308 <_reset_h>
    82ec:	e59ff018 	ldr	pc, [pc, #24]	; 830c <_undefined_instruction_vector_h>
    82f0:	e59ff018 	ldr	pc, [pc, #24]	; 8310 <_software_interrupt_vector_h>
    82f4:	e59ff018 	ldr	pc, [pc, #24]	; 8314 <_prefetch_abort_vector_h>
    82f8:	e59ff018 	ldr	pc, [pc, #24]	; 8318 <_data_abort_vector_h>
    82fc:	e59ff018 	ldr	pc, [pc, #24]	; 831c <_unused_handler_h>
    8300:	e59ff018 	ldr	pc, [pc, #24]	; 8320 <_interrupt_vector_h>
    8304:	e59ff018 	ldr	pc, [pc, #24]	; 8324 <_fast_interrupt_vector_h>

00008308 <_reset_h>:
    8308:	0000826c 	.word	0x0000826c

0000830c <_undefined_instruction_vector_h>:
    830c:	0000826c 	.word	0x0000826c

00008310 <_software_interrupt_vector_h>:
    8310:	0000842c 	.word	0x0000842c

00008314 <_prefetch_abort_vector_h>:
    8314:	0000826c 	.word	0x0000826c

00008318 <_data_abort_vector_h>:
    8318:	0000826c 	.word	0x0000826c

0000831c <_unused_handler_h>:
    831c:	0000826c 	.word	0x0000826c

00008320 <_interrupt_vector_h>:
    8320:	0000838c 	.word	0x0000838c

00008324 <_fast_interrupt_vector_h>:
    8324:	000084d0 	.word	0x000084d0

00008328 <SecondarySpin>:
    8328:	ee100fb0 	mrc	15, 0, r0, cr0, cr0, {5}
    832c:	e2100003 	ands	r0, r0, #3
    8330:	e59f5044 	ldr	r5, [pc, #68]	; 837c <atags+0x4>
    8334:	e5955000 	ldr	r5, [r5]
    8338:	e3a03000 	mov	r3, #0

0000833c <SecondarySpinLoop>:
    833c:	e320f002 	wfe
    8340:	e7954200 	ldr	r4, [r5, r0, lsl #4]
    8344:	e1540003 	cmp	r4, r3
    8348:	0afffffb 	beq	833c <SecondarySpinLoop>
    834c:	e7854200 	str	r4, [r5, r0, lsl #4]
    8350:	e3a00000 	mov	r0, #0
    8354:	e59f1024 	ldr	r1, [pc, #36]	; 8380 <atags+0x8>
    8358:	e5911000 	ldr	r1, [r1]
    835c:	e59f2020 	ldr	r2, [pc, #32]	; 8384 <atags+0xc>
    8360:	e5922000 	ldr	r2, [r2]
    8364:	e59fe01c 	ldr	lr, [pc, #28]	; 8388 <atags+0x10>
    8368:	e12fff14 	bx	r4
    836c:	eaffffed 	b	8328 <SecondarySpin>

00008370 <mbox>:
    8370:	400000cc 	.word	0x400000cc

00008374 <machid>:
    8374:	00000c42 	.word	0x00000c42

00008378 <atags>:
    8378:	00000100 	.word	0x00000100
    837c:	00008370 	.word	0x00008370
    8380:	00008374 	.word	0x00008374
    8384:	00008378 	.word	0x00008378
    8388:	00008328 	.word	0x00008328

0000838c <irq_handler_stub>:
    838c:	e92d0001 	stmfd	sp!, {r0}
    8390:	e94d2000 	stmdb	sp, {sp}^
    8394:	e24dd004 	sub	sp, sp, #4
    8398:	e8bd0001 	ldmfd	sp!, {r0}
    839c:	e9204000 	stmdb	r0!, {lr}
    83a0:	e1a0e000 	mov	lr, r0
    83a4:	e8bd0001 	ldmfd	sp!, {r0}
    83a8:	e94e7fff 	stmdb	lr, {r0, r1, r2, r3, r4, r5, r6, r7, r8, r9, sl, fp, ip, sp, lr}^
    83ac:	e320f000 	nop	{0}
    83b0:	e24ee03c 	sub	lr, lr, #60	; 0x3c
    83b4:	e14f0000 	mrs	r0, SPSR
    83b8:	e92e0001 	stmdb	lr!, {r0}
    83bc:	e59f0150 	ldr	r0, [pc, #336]	; 8514 <no_fiqset+0x10>
    83c0:	e5900000 	ldr	r0, [r0]
    83c4:	e92e0001 	stmdb	lr!, {r0}
    83c8:	e59f0148 	ldr	r0, [pc, #328]	; 8518 <no_fiqset+0x14>
    83cc:	e5900000 	ldr	r0, [r0]
    83d0:	e580e000 	str	lr, [r0]
    83d4:	e1a0100d 	mov	r1, sp
    83d8:	e2011007 	and	r1, r1, #7
    83dc:	e04dd001 	sub	sp, sp, r1
    83e0:	e92d4002 	push	{r1, lr}
    83e4:	eb001023 	bl	c478 <irqHandler>
    83e8:	e8bd4002 	pop	{r1, lr}
    83ec:	e08dd001 	add	sp, sp, r1
    83f0:	e59f0120 	ldr	r0, [pc, #288]	; 8518 <no_fiqset+0x14>
    83f4:	e5900000 	ldr	r0, [r0]
    83f8:	e590e000 	ldr	lr, [r0]
    83fc:	e59f0110 	ldr	r0, [pc, #272]	; 8514 <no_fiqset+0x10>
    8400:	e8be0002 	ldm	lr!, {r1}
    8404:	e5801000 	str	r1, [r0]
    8408:	e8be0001 	ldm	lr!, {r0}
    840c:	e16ff000 	msr	SPSR_fsxc, r0
    8410:	e8de7fff 	ldm	lr, {r0, r1, r2, r3, r4, r5, r6, r7, r8, r9, sl, fp, ip, sp, lr}^
    8414:	e320f000 	nop	{0}
    8418:	e59ee03c 	ldr	lr, [lr, #60]	; 0x3c
    841c:	e25ef004 	subs	pc, lr, #4
    8420:	e320f000 	nop	{0}
    8424:	e320f000 	nop	{0}
    8428:	eafffffe 	b	8428 <irq_handler_stub+0x9c>

0000842c <swi_handler_stub>:
    842c:	e28ee004 	add	lr, lr, #4
    8430:	e92d0001 	stmfd	sp!, {r0}
    8434:	e94d2000 	stmdb	sp, {sp}^
    8438:	e24dd004 	sub	sp, sp, #4
    843c:	e8bd0001 	ldmfd	sp!, {r0}
    8440:	e9204000 	stmdb	r0!, {lr}
    8444:	e1a0e000 	mov	lr, r0
    8448:	e8bd0001 	ldmfd	sp!, {r0}
    844c:	e94e7fff 	stmdb	lr, {r0, r1, r2, r3, r4, r5, r6, r7, r8, r9, sl, fp, ip, sp, lr}^
    8450:	e320f000 	nop	{0}
    8454:	e24ee03c 	sub	lr, lr, #60	; 0x3c
    8458:	e14f0000 	mrs	r0, SPSR
    845c:	e92e0001 	stmdb	lr!, {r0}
    8460:	e59f00ac 	ldr	r0, [pc, #172]	; 8514 <no_fiqset+0x10>
    8464:	e5900000 	ldr	r0, [r0]
    8468:	e92e0001 	stmdb	lr!, {r0}
    846c:	e59f00a4 	ldr	r0, [pc, #164]	; 8518 <no_fiqset+0x14>
    8470:	e5900000 	ldr	r0, [r0]
    8474:	e580e000 	str	lr, [r0]
    8478:	e1a0100d 	mov	r1, sp
    847c:	e2011007 	and	r1, r1, #7
    8480:	e04dd001 	sub	sp, sp, r1
    8484:	e92d4002 	push	{r1, lr}
    8488:	eb000e82 	bl	be98 <vTaskSwitchContext>
    848c:	e8bd4002 	pop	{r1, lr}
    8490:	e08dd001 	add	sp, sp, r1
    8494:	e59f007c 	ldr	r0, [pc, #124]	; 8518 <no_fiqset+0x14>
    8498:	e5900000 	ldr	r0, [r0]
    849c:	e590e000 	ldr	lr, [r0]
    84a0:	e59f006c 	ldr	r0, [pc, #108]	; 8514 <no_fiqset+0x10>
    84a4:	e8be0002 	ldm	lr!, {r1}
    84a8:	e5801000 	str	r1, [r0]
    84ac:	e8be0001 	ldm	lr!, {r0}
    84b0:	e16ff000 	msr	SPSR_fsxc, r0
    84b4:	e8de7fff 	ldm	lr, {r0, r1, r2, r3, r4, r5, r6, r7, r8, r9, sl, fp, ip, sp, lr}^
    84b8:	e320f000 	nop	{0}
    84bc:	e59ee03c 	ldr	lr, [lr, #60]	; 0x3c
    84c0:	e25ef004 	subs	pc, lr, #4
    84c4:	e320f000 	nop	{0}
    84c8:	e320f000 	nop	{0}
    84cc:	eafffffe 	b	84cc <swi_handler_stub+0xa0>

000084d0 <fiq_handler_stub>:
    84d0:	e24ee004 	sub	lr, lr, #4
    84d4:	f96d0513 	srsdb	sp!, #19
    84d8:	f1020013 	cps	#19
    84dc:	e92d00ff 	push	{r0, r1, r2, r3, r4, r5, r6, r7}
    84e0:	e1a0100d 	mov	r1, sp
    84e4:	e2011007 	and	r1, r1, #7
    84e8:	e04dd001 	sub	sp, sp, r1
    84ec:	e92d4002 	push	{r1, lr}
    84f0:	e59f0024 	ldr	r0, [pc, #36]	; 851c <no_fiqset+0x18>
    84f4:	e5900000 	ldr	r0, [r0]
    84f8:	e3500000 	cmp	r0, #0
    84fc:	0a000000 	beq	8504 <no_fiqset>
    8500:	e12fff30 	blx	r0

00008504 <no_fiqset>:
    8504:	e8bd4002 	pop	{r1, lr}
    8508:	e08dd001 	add	sp, sp, r1
    850c:	e8bd00ff 	pop	{r0, r1, r2, r3, r4, r5, r6, r7}
    8510:	f8bd0a00 	rfeia	sp!
    8514:	0000f5ac 	.word	0x0000f5ac
    8518:	00021258 	.word	0x00021258
    851c:	0000f580 	.word	0x0000f580

Disassembly of section .text:

00008520 <EnableInterrupts>:
    8520:	f1080080 	cpsie	i
    8524:	e12fff1e 	bx	lr

00008528 <DisableInterrupts>:
    8528:	f10c0080 	cpsid	i
    852c:	e12fff1e 	bx	lr

00008530 <ARMaddrToGPUaddr>:
    8530:	e59f1008 	ldr	r1, [pc, #8]	; 8540 <ARMaddrToGPUaddr+0x10>
    8534:	e5911000 	ldr	r1, [r1]
    8538:	e1800001 	orr	r0, r0, r1
    853c:	e12fff1e 	bx	lr
    8540:	0000f588 	.word	0x0000f588

00008544 <GPUaddrToARMaddr>:
    8544:	e59f1008 	ldr	r1, [pc, #8]	; 8554 <GPUaddrToARMaddr+0x10>
    8548:	e5911000 	ldr	r1, [r1]
    854c:	e1c00001 	bic	r0, r0, r1
    8550:	e12fff1e 	bx	lr
    8554:	0000f588 	.word	0x0000f588

00008558 <getCoreID>:
    8558:	e3a00000 	mov	r0, #0
    855c:	ee101f10 	mrc	15, 0, r1, cr0, cr0, {0}
    8560:	e59f2010 	ldr	r2, [pc, #16]	; 8578 <isARM6+0x8>
    8564:	e1520001 	cmp	r2, r1
    8568:	0a000000 	beq	8570 <isARM6>
    856c:	ee100fb0 	mrc	15, 0, r0, cr0, cr0, {5}

00008570 <isARM6>:
    8570:	e2000003 	and	r0, r0, #3
    8574:	e12fff1e 	bx	lr
    8578:	410fb767 	.word	0x410fb767

0000857c <PUT32>:
    857c:	e5801000 	str	r1, [r0]
    8580:	e12fff1e 	bx	lr

00008584 <restore_context>:
    8584:	e59f0030 	ldr	r0, [pc, #48]	; 85bc <restore_context+0x38>
    8588:	e5900000 	ldr	r0, [r0]
    858c:	e590e000 	ldr	lr, [r0]
    8590:	e59f0028 	ldr	r0, [pc, #40]	; 85c0 <restore_context+0x3c>
    8594:	e8be0002 	ldm	lr!, {r1}
    8598:	e5801000 	str	r1, [r0]
    859c:	e8be0001 	ldm	lr!, {r0}
    85a0:	e16ff000 	msr	SPSR_fsxc, r0
    85a4:	e8de7fff 	ldm	lr, {r0, r1, r2, r3, r4, r5, r6, r7, r8, r9, sl, fp, ip, sp, lr}^
    85a8:	e320f000 	nop	{0}
    85ac:	e59ee03c 	ldr	lr, [lr, #60]	; 0x3c
    85b0:	e25ef004 	subs	pc, lr, #4
    85b4:	e320f000 	nop	{0}
    85b8:	e320f000 	nop	{0}
    85bc:	00021258 	.word	0x00021258
    85c0:	0000f5ac 	.word	0x0000f5ac

000085c4 <ClearArea16>:
    85c4:	e92d47f0 	push	{r4, r5, r6, r7, r8, r9, sl, lr}
    85c8:	e59da020 	ldr	sl, [sp, #32]
    85cc:	e590c010 	ldr	ip, [r0, #16]
    85d0:	e5905000 	ldr	r5, [r0]
    85d4:	e02c129c 	mla	ip, ip, r2, r1
    85d8:	e05aa002 	subs	sl, sl, r2
    85dc:	e085508c 	add	r5, r5, ip, lsl #1
    85e0:	08bd87f0 	popeq	{r4, r5, r6, r7, r8, r9, sl, pc}
    85e4:	e0536001 	subs	r6, r3, r1
    85e8:	11a09000 	movne	r9, r0
    85ec:	13a08000 	movne	r8, #0
    85f0:	12897034 	addne	r7, r9, #52	; 0x34
    85f4:	0a00000d 	beq	8630 <ClearArea16+0x6c>
    85f8:	e3a04000 	mov	r4, #0
    85fc:	e0850084 	add	r0, r5, r4, lsl #1
    8600:	e3a02002 	mov	r2, #2
    8604:	e1a01007 	mov	r1, r7
    8608:	e2844001 	add	r4, r4, #1
    860c:	fa0016e9 	blx	e1b8 <memcpy>
    8610:	e1560004 	cmp	r6, r4
    8614:	1afffff8 	bne	85fc <ClearArea16+0x38>
    8618:	e5993010 	ldr	r3, [r9, #16]
    861c:	e2888001 	add	r8, r8, #1
    8620:	e158000a 	cmp	r8, sl
    8624:	e0855083 	add	r5, r5, r3, lsl #1
    8628:	1afffff2 	bne	85f8 <ClearArea16+0x34>
    862c:	e8bd87f0 	pop	{r4, r5, r6, r7, r8, r9, sl, pc}
    8630:	e8bd87f0 	pop	{r4, r5, r6, r7, r8, r9, sl, pc}

00008634 <VertLine16>:
    8634:	e92d41f0 	push	{r4, r5, r6, r7, r8, lr}
    8638:	e2517000 	subs	r7, r1, #0
    863c:	e590c010 	ldr	ip, [r0, #16]
    8640:	e5903014 	ldr	r3, [r0, #20]
    8644:	e590e018 	ldr	lr, [r0, #24]
    8648:	e1a0c08c 	lsl	ip, ip, #1
    864c:	e1a03083 	lsl	r3, r3, #1
    8650:	e0233c9e 	mla	r3, lr, ip, r3
    8654:	e590c000 	ldr	ip, [r0]
    8658:	e083300c 	add	r3, r3, ip
    865c:	08bd81f0 	popeq	{r4, r5, r6, r7, r8, pc}
    8660:	e3520001 	cmp	r2, #1
    8664:	e1a05000 	mov	r5, r0
    8668:	e3a04000 	mov	r4, #0
    866c:	e2806030 	add	r6, r0, #48	; 0x30
    8670:	0a000009 	beq	869c <VertLine16+0x68>
    8674:	e3a02002 	mov	r2, #2
    8678:	e1a00003 	mov	r0, r3
    867c:	e2844001 	add	r4, r4, #1
    8680:	e1a01006 	mov	r1, r6
    8684:	fa0016cb 	blx	e1b8 <memcpy>
    8688:	e5952010 	ldr	r2, [r5, #16]
    868c:	e1570004 	cmp	r7, r4
    8690:	e0403082 	sub	r3, r0, r2, lsl #1
    8694:	1afffff6 	bne	8674 <VertLine16+0x40>
    8698:	e8bd81f0 	pop	{r4, r5, r6, r7, r8, pc}
    869c:	e3a02002 	mov	r2, #2
    86a0:	e1a00003 	mov	r0, r3
    86a4:	e2844001 	add	r4, r4, #1
    86a8:	e1a01006 	mov	r1, r6
    86ac:	fa0016c1 	blx	e1b8 <memcpy>
    86b0:	e5952010 	ldr	r2, [r5, #16]
    86b4:	e1570004 	cmp	r7, r4
    86b8:	e0803082 	add	r3, r0, r2, lsl #1
    86bc:	1afffff6 	bne	869c <VertLine16+0x68>
    86c0:	e8bd81f0 	pop	{r4, r5, r6, r7, r8, pc}

000086c4 <HorzLine16>:
    86c4:	e92d41f0 	push	{r4, r5, r6, r7, r8, lr}
    86c8:	e2518000 	subs	r8, r1, #0
    86cc:	e5903010 	ldr	r3, [r0, #16]
    86d0:	e5904014 	ldr	r4, [r0, #20]
    86d4:	e5901018 	ldr	r1, [r0, #24]
    86d8:	e1a03083 	lsl	r3, r3, #1
    86dc:	e1a04084 	lsl	r4, r4, #1
    86e0:	e0244391 	mla	r4, r1, r3, r4
    86e4:	e5903000 	ldr	r3, [r0]
    86e8:	e0844003 	add	r4, r4, r3
    86ec:	08bd81f0 	popeq	{r4, r5, r6, r7, r8, pc}
    86f0:	e1a07082 	lsl	r7, r2, #1
    86f4:	e2806030 	add	r6, r0, #48	; 0x30
    86f8:	e3a05000 	mov	r5, #0
    86fc:	e1a00004 	mov	r0, r4
    8700:	e2855001 	add	r5, r5, #1
    8704:	e0844007 	add	r4, r4, r7
    8708:	e3a02002 	mov	r2, #2
    870c:	e1a01006 	mov	r1, r6
    8710:	fa0016a8 	blx	e1b8 <memcpy>
    8714:	e1580005 	cmp	r8, r5
    8718:	1afffff7 	bne	86fc <HorzLine16+0x38>
    871c:	e8bd81f0 	pop	{r4, r5, r6, r7, r8, pc}

00008720 <DiagLine16>:
    8720:	e92d4ff0 	push	{r4, r5, r6, r7, r8, r9, sl, fp, lr}
    8724:	e24dd00c 	sub	sp, sp, #12
    8728:	e590c010 	ldr	ip, [r0, #16]
    872c:	e590e014 	ldr	lr, [r0, #20]
    8730:	e5904018 	ldr	r4, [r0, #24]
    8734:	e1510002 	cmp	r1, r2
    8738:	e1a0c08c 	lsl	ip, ip, #1
    873c:	31a09001 	movcc	r9, r1
    8740:	e1a0e08e 	lsl	lr, lr, #1
    8744:	21a09002 	movcs	r9, r2
    8748:	e02cec94 	mla	ip, r4, ip, lr
    874c:	e5904000 	ldr	r4, [r0]
    8750:	e3510000 	cmp	r1, #0
    8754:	e08c4004 	add	r4, ip, r4
    8758:	0a000019 	beq	87c4 <DiagLine16+0xa4>
    875c:	e1a03083 	lsl	r3, r3, #1
    8760:	e3a06000 	mov	r6, #0
    8764:	e58d3004 	str	r3, [sp, #4]
    8768:	e1a05001 	mov	r5, r1
    876c:	e59d3030 	ldr	r3, [sp, #48]	; 0x30
    8770:	e1a0b000 	mov	fp, r0
    8774:	e280a030 	add	sl, r0, #48	; 0x30
    8778:	e1a07006 	mov	r7, r6
    877c:	e1a08083 	lsl	r8, r3, #1
    8780:	e3a02002 	mov	r2, #2
    8784:	e1a0100a 	mov	r1, sl
    8788:	e1a00004 	mov	r0, r4
    878c:	e2866001 	add	r6, r6, #1
    8790:	fa001688 	blx	e1b8 <memcpy>
    8794:	e59d3004 	ldr	r3, [sp, #4]
    8798:	e59b2010 	ldr	r2, [fp, #16]
    879c:	e0844003 	add	r4, r4, r3
    87a0:	e0224892 	mla	r2, r2, r8, r4
    87a4:	e0873009 	add	r3, r7, r9
    87a8:	e1550003 	cmp	r5, r3
    87ac:	e0431005 	sub	r1, r3, r5
    87b0:	91a04002 	movls	r4, r2
    87b4:	81a07003 	movhi	r7, r3
    87b8:	91a07001 	movls	r7, r1
    87bc:	e1550006 	cmp	r5, r6
    87c0:	1affffee 	bne	8780 <DiagLine16+0x60>
    87c4:	e28dd00c 	add	sp, sp, #12
    87c8:	e8bd8ff0 	pop	{r4, r5, r6, r7, r8, r9, sl, fp, pc}

000087cc <WriteChar16>:
    87cc:	e92d47f0 	push	{r4, r5, r6, r7, r8, r9, sl, lr}
    87d0:	e30e33a4 	movw	r3, #58276	; 0xe3a4
    87d4:	e5907010 	ldr	r7, [r0, #16]
    87d8:	e1a08000 	mov	r8, r0
    87dc:	e5902014 	ldr	r2, [r0, #20]
    87e0:	e24dd008 	sub	sp, sp, #8
    87e4:	e5900018 	ldr	r0, [r0, #24]
    87e8:	e1a02082 	lsl	r2, r2, #1
    87ec:	e3403000 	movt	r3, #0
    87f0:	e1a07087 	lsl	r7, r7, #1
    87f4:	e0272790 	mla	r7, r0, r7, r2
    87f8:	e0839201 	add	r9, r3, r1, lsl #4
    87fc:	e5982000 	ldr	r2, [r8]
    8800:	e1a03009 	mov	r3, r9
    8804:	e283a00c 	add	sl, r3, #12
    8808:	e2499004 	sub	r9, r9, #4
    880c:	e0877002 	add	r7, r7, r2
    8810:	e5b95004 	ldr	r5, [r9, #4]!
    8814:	e3a04000 	mov	r4, #0
    8818:	e3550000 	cmp	r5, #0
    881c:	e2046007 	and	r6, r4, #7
    8820:	e3a02002 	mov	r2, #2
    8824:	e28d1004 	add	r1, sp, #4
    8828:	a1d833b2 	ldrhge	r3, [r8, #50]	; 0x32
    882c:	e2844001 	add	r4, r4, #1
    8830:	b1d833b0 	ldrhlt	r3, [r8, #48]	; 0x30
    8834:	e0870086 	add	r0, r7, r6, lsl #1
    8838:	e1cd30b4 	strh	r3, [sp, #4]
    883c:	fa00165d 	blx	e1b8 <memcpy>
    8840:	e1a05085 	lsl	r5, r5, #1
    8844:	e3560007 	cmp	r6, #7
    8848:	05983010 	ldreq	r3, [r8, #16]
    884c:	00877083 	addeq	r7, r7, r3, lsl #1
    8850:	e3540020 	cmp	r4, #32
    8854:	1affffef 	bne	8818 <WriteChar16+0x4c>
    8858:	e159000a 	cmp	r9, sl
    885c:	1affffeb 	bne	8810 <WriteChar16+0x44>
    8860:	e28dd008 	add	sp, sp, #8
    8864:	e8bd87f0 	pop	{r4, r5, r6, r7, r8, r9, sl, pc}

00008868 <TransparentWriteChar16>:
    8868:	e92d4ff8 	push	{r3, r4, r5, r6, r7, r8, r9, sl, fp, lr}
    886c:	e1a08000 	mov	r8, r0
    8870:	e5907010 	ldr	r7, [r0, #16]
    8874:	e1a0b000 	mov	fp, r0
    8878:	e5902014 	ldr	r2, [r0, #20]
    887c:	e30e33a4 	movw	r3, #58276	; 0xe3a4
    8880:	e5900018 	ldr	r0, [r0, #24]
    8884:	e1a02082 	lsl	r2, r2, #1
    8888:	e3403000 	movt	r3, #0
    888c:	e1a07087 	lsl	r7, r7, #1
    8890:	e0272790 	mla	r7, r0, r7, r2
    8894:	e0839201 	add	r9, r3, r1, lsl #4
    8898:	e4982030 	ldr	r2, [r8], #48	; 0x30
    889c:	e1a03009 	mov	r3, r9
    88a0:	e283a00c 	add	sl, r3, #12
    88a4:	e2499004 	sub	r9, r9, #4
    88a8:	e0877002 	add	r7, r7, r2
    88ac:	e5b95004 	ldr	r5, [r9, #4]!
    88b0:	e3a04000 	mov	r4, #0
    88b4:	ea000005 	b	88d0 <TransparentWriteChar16+0x68>
    88b8:	e1a05085 	lsl	r5, r5, #1
    88bc:	e3560007 	cmp	r6, #7
    88c0:	059b3010 	ldreq	r3, [fp, #16]
    88c4:	00877083 	addeq	r7, r7, r3, lsl #1
    88c8:	e3540020 	cmp	r4, #32
    88cc:	0a000008 	beq	88f4 <TransparentWriteChar16+0x8c>
    88d0:	e3550000 	cmp	r5, #0
    88d4:	e2046007 	and	r6, r4, #7
    88d8:	e2844001 	add	r4, r4, #1
    88dc:	aafffff5 	bge	88b8 <TransparentWriteChar16+0x50>
    88e0:	e3a02002 	mov	r2, #2
    88e4:	e1a01008 	mov	r1, r8
    88e8:	e0870086 	add	r0, r7, r6, lsl #1
    88ec:	fa001631 	blx	e1b8 <memcpy>
    88f0:	eafffff0 	b	88b8 <TransparentWriteChar16+0x50>
    88f4:	e15a0009 	cmp	sl, r9
    88f8:	1affffeb 	bne	88ac <TransparentWriteChar16+0x44>
    88fc:	e8bd8ff8 	pop	{r3, r4, r5, r6, r7, r8, r9, sl, fp, pc}

00008900 <PutImage16>:
    8900:	e92d4ff0 	push	{r4, r5, r6, r7, r8, r9, sl, fp, lr}
    8904:	e2529000 	subs	r9, r2, #0
    8908:	e590c010 	ldr	ip, [r0, #16]
    890c:	e24dd00c 	sub	sp, sp, #12
    8910:	e590e014 	ldr	lr, [r0, #20]
    8914:	e5902018 	ldr	r2, [r0, #24]
    8918:	e1a0408c 	lsl	r4, ip, #1
    891c:	e1a0e08e 	lsl	lr, lr, #1
    8920:	e024e492 	mla	r4, r2, r4, lr
    8924:	e5902000 	ldr	r2, [r0]
    8928:	e5ddb034 	ldrb	fp, [sp, #52]	; 0x34
    892c:	e0844002 	add	r4, r4, r2
    8930:	0a000018 	beq	8998 <PutImage16+0x98>
    8934:	e3510000 	cmp	r1, #0
    8938:	0a000016 	beq	8998 <PutImage16+0x98>
    893c:	e59d5030 	ldr	r5, [sp, #48]	; 0x30
    8940:	e1a06001 	mov	r6, r1
    8944:	e58d3004 	str	r3, [sp, #4]
    8948:	e1a08000 	mov	r8, r0
    894c:	e3a07000 	mov	r7, #0
    8950:	e3a0a000 	mov	sl, #0
    8954:	e1a0008a 	lsl	r0, sl, #1
    8958:	e3a02002 	mov	r2, #2
    895c:	e0851000 	add	r1, r5, r0
    8960:	e28aa001 	add	sl, sl, #1
    8964:	e0840000 	add	r0, r4, r0
    8968:	fa001612 	blx	e1b8 <memcpy>
    896c:	e156000a 	cmp	r6, sl
    8970:	1afffff7 	bne	8954 <PutImage16+0x54>
    8974:	e5983010 	ldr	r3, [r8, #16]
    8978:	e35b0000 	cmp	fp, #0
    897c:	e2877001 	add	r7, r7, #1
    8980:	0a000006 	beq	89a0 <PutImage16+0xa0>
    8984:	e59d2004 	ldr	r2, [sp, #4]
    8988:	e1590007 	cmp	r9, r7
    898c:	e0855002 	add	r5, r5, r2
    8990:	e0444083 	sub	r4, r4, r3, lsl #1
    8994:	1affffed 	bne	8950 <PutImage16+0x50>
    8998:	e28dd00c 	add	sp, sp, #12
    899c:	e8bd8ff0 	pop	{r4, r5, r6, r7, r8, r9, sl, fp, pc}
    89a0:	e59d2004 	ldr	r2, [sp, #4]
    89a4:	e1590007 	cmp	r9, r7
    89a8:	e0855002 	add	r5, r5, r2
    89ac:	e0844083 	add	r4, r4, r3, lsl #1
    89b0:	1affffe6 	bne	8950 <PutImage16+0x50>
    89b4:	e28dd00c 	add	sp, sp, #12
    89b8:	e8bd8ff0 	pop	{r4, r5, r6, r7, r8, r9, sl, fp, pc}

000089bc <ClearArea24>:
    89bc:	e92d4ff8 	push	{r3, r4, r5, r6, r7, r8, r9, sl, fp, lr}
    89c0:	e3a0a003 	mov	sl, #3
    89c4:	e59db028 	ldr	fp, [sp, #40]	; 0x28
    89c8:	e590c010 	ldr	ip, [r0, #16]
    89cc:	e5905000 	ldr	r5, [r0]
    89d0:	e02c129c 	mla	ip, ip, r2, r1
    89d4:	e05bb002 	subs	fp, fp, r2
    89d8:	e0255c9a 	mla	r5, sl, ip, r5
    89dc:	08bd8ff8 	popeq	{r3, r4, r5, r6, r7, r8, r9, sl, fp, pc}
    89e0:	e0533001 	subs	r3, r3, r1
    89e4:	08bd8ff8 	popeq	{r3, r4, r5, r6, r7, r8, r9, sl, fp, pc}
    89e8:	e1a09000 	mov	r9, r0
    89ec:	e3a08000 	mov	r8, #0
    89f0:	e006039a 	mul	r6, sl, r3
    89f4:	e280702c 	add	r7, r0, #44	; 0x2c
    89f8:	e3a04000 	mov	r4, #0
    89fc:	e0850004 	add	r0, r5, r4
    8a00:	e3a02003 	mov	r2, #3
    8a04:	e0844002 	add	r4, r4, r2
    8a08:	e1a01007 	mov	r1, r7
    8a0c:	fa0015e9 	blx	e1b8 <memcpy>
    8a10:	e1540006 	cmp	r4, r6
    8a14:	1afffff8 	bne	89fc <ClearArea24+0x40>
    8a18:	e5993010 	ldr	r3, [r9, #16]
    8a1c:	e2888001 	add	r8, r8, #1
    8a20:	e158000b 	cmp	r8, fp
    8a24:	e025539a 	mla	r5, sl, r3, r5
    8a28:	1afffff2 	bne	89f8 <ClearArea24+0x3c>
    8a2c:	e8bd8ff8 	pop	{r3, r4, r5, r6, r7, r8, r9, sl, fp, pc}

00008a30 <VertLine24>:
    8a30:	e92d41f0 	push	{r4, r5, r6, r7, r8, lr}
    8a34:	e3a06003 	mov	r6, #3
    8a38:	e5903010 	ldr	r3, [r0, #16]
    8a3c:	e2517000 	subs	r7, r1, #0
    8a40:	e590c014 	ldr	ip, [r0, #20]
    8a44:	e0030396 	mul	r3, r6, r3
    8a48:	e590e018 	ldr	lr, [r0, #24]
    8a4c:	e00c0c96 	mul	ip, r6, ip
    8a50:	e023c39e 	mla	r3, lr, r3, ip
    8a54:	e590c000 	ldr	ip, [r0]
    8a58:	e083300c 	add	r3, r3, ip
    8a5c:	08bd81f0 	popeq	{r4, r5, r6, r7, r8, pc}
    8a60:	e3520001 	cmp	r2, #1
    8a64:	e1a05000 	mov	r5, r0
    8a68:	e3a04000 	mov	r4, #0
    8a6c:	e2808024 	add	r8, r0, #36	; 0x24
    8a70:	0a000009 	beq	8a9c <VertLine24+0x6c>
    8a74:	e3a02003 	mov	r2, #3
    8a78:	e1a00003 	mov	r0, r3
    8a7c:	e2844001 	add	r4, r4, #1
    8a80:	e1a01008 	mov	r1, r8
    8a84:	fa0015cb 	blx	e1b8 <memcpy>
    8a88:	e5952010 	ldr	r2, [r5, #16]
    8a8c:	e1570004 	cmp	r7, r4
    8a90:	e0630296 	mls	r3, r6, r2, r0
    8a94:	1afffff6 	bne	8a74 <VertLine24+0x44>
    8a98:	e8bd81f0 	pop	{r4, r5, r6, r7, r8, pc}
    8a9c:	e3a02003 	mov	r2, #3
    8aa0:	e1a00003 	mov	r0, r3
    8aa4:	e2844001 	add	r4, r4, #1
    8aa8:	e1a01008 	mov	r1, r8
    8aac:	fa0015c1 	blx	e1b8 <memcpy>
    8ab0:	e5952010 	ldr	r2, [r5, #16]
    8ab4:	e1570004 	cmp	r7, r4
    8ab8:	e0230296 	mla	r3, r6, r2, r0
    8abc:	1afffff6 	bne	8a9c <VertLine24+0x6c>
    8ac0:	e8bd81f0 	pop	{r4, r5, r6, r7, r8, pc}

00008ac4 <HorzLine24>:
    8ac4:	e92d41f0 	push	{r4, r5, r6, r7, r8, lr}
    8ac8:	e3a03003 	mov	r3, #3
    8acc:	e590c010 	ldr	ip, [r0, #16]
    8ad0:	e2518000 	subs	r8, r1, #0
    8ad4:	e590e014 	ldr	lr, [r0, #20]
    8ad8:	e00c0c93 	mul	ip, r3, ip
    8adc:	e5905018 	ldr	r5, [r0, #24]
    8ae0:	e0040e93 	mul	r4, r3, lr
    8ae4:	e0244c95 	mla	r4, r5, ip, r4
    8ae8:	e590c000 	ldr	ip, [r0]
    8aec:	e084400c 	add	r4, r4, ip
    8af0:	08bd81f0 	popeq	{r4, r5, r6, r7, r8, pc}
    8af4:	e0070293 	mul	r7, r3, r2
    8af8:	e2806024 	add	r6, r0, #36	; 0x24
    8afc:	e3a05000 	mov	r5, #0
    8b00:	e1a00004 	mov	r0, r4
    8b04:	e2855001 	add	r5, r5, #1
    8b08:	e0844007 	add	r4, r4, r7
    8b0c:	e3a02003 	mov	r2, #3
    8b10:	e1a01006 	mov	r1, r6
    8b14:	fa0015a7 	blx	e1b8 <memcpy>
    8b18:	e1580005 	cmp	r8, r5
    8b1c:	1afffff7 	bne	8b00 <HorzLine24+0x3c>
    8b20:	e8bd81f0 	pop	{r4, r5, r6, r7, r8, pc}

00008b24 <DiagLine24>:
    8b24:	e92d4ff0 	push	{r4, r5, r6, r7, r8, r9, sl, fp, lr}
    8b28:	e3a07003 	mov	r7, #3
    8b2c:	e590c010 	ldr	ip, [r0, #16]
    8b30:	e24dd00c 	sub	sp, sp, #12
    8b34:	e590e014 	ldr	lr, [r0, #20]
    8b38:	e5904018 	ldr	r4, [r0, #24]
    8b3c:	e00c0c97 	mul	ip, r7, ip
    8b40:	e1510002 	cmp	r1, r2
    8b44:	e00e0e97 	mul	lr, r7, lr
    8b48:	e02cec94 	mla	ip, r4, ip, lr
    8b4c:	e5904000 	ldr	r4, [r0]
    8b50:	31a09001 	movcc	r9, r1
    8b54:	21a09002 	movcs	r9, r2
    8b58:	e3510000 	cmp	r1, #0
    8b5c:	e08c4004 	add	r4, ip, r4
    8b60:	0a000019 	beq	8bcc <DiagLine24+0xa8>
    8b64:	e0030397 	mul	r3, r7, r3
    8b68:	e3a06000 	mov	r6, #0
    8b6c:	e1a05001 	mov	r5, r1
    8b70:	e58d3004 	str	r3, [sp, #4]
    8b74:	e1a0b000 	mov	fp, r0
    8b78:	e59d3030 	ldr	r3, [sp, #48]	; 0x30
    8b7c:	e280a024 	add	sl, r0, #36	; 0x24
    8b80:	e1a08006 	mov	r8, r6
    8b84:	e0070397 	mul	r7, r7, r3
    8b88:	e3a02003 	mov	r2, #3
    8b8c:	e1a0100a 	mov	r1, sl
    8b90:	e1a00004 	mov	r0, r4
    8b94:	e2866001 	add	r6, r6, #1
    8b98:	fa001586 	blx	e1b8 <memcpy>
    8b9c:	e59d3004 	ldr	r3, [sp, #4]
    8ba0:	e59b2010 	ldr	r2, [fp, #16]
    8ba4:	e0844003 	add	r4, r4, r3
    8ba8:	e0224792 	mla	r2, r2, r7, r4
    8bac:	e0883009 	add	r3, r8, r9
    8bb0:	e1550003 	cmp	r5, r3
    8bb4:	e0431005 	sub	r1, r3, r5
    8bb8:	91a04002 	movls	r4, r2
    8bbc:	81a08003 	movhi	r8, r3
    8bc0:	91a08001 	movls	r8, r1
    8bc4:	e1550006 	cmp	r5, r6
    8bc8:	1affffee 	bne	8b88 <DiagLine24+0x64>
    8bcc:	e28dd00c 	add	sp, sp, #12
    8bd0:	e8bd8ff0 	pop	{r4, r5, r6, r7, r8, r9, sl, fp, pc}

00008bd4 <WriteChar24>:
    8bd4:	e5902010 	ldr	r2, [r0, #16]
    8bd8:	e3a03003 	mov	r3, #3
    8bdc:	e590c014 	ldr	ip, [r0, #20]
    8be0:	e92d47f0 	push	{r4, r5, r6, r7, r8, r9, sl, lr}
    8be4:	e30ea3a4 	movw	sl, #58276	; 0xe3a4
    8be8:	e0040293 	mul	r4, r3, r2
    8bec:	e590e018 	ldr	lr, [r0, #24]
    8bf0:	e1a08003 	mov	r8, r3
    8bf4:	e0020c93 	mul	r2, r3, ip
    8bf8:	e024249e 	mla	r4, lr, r4, r2
    8bfc:	e340a000 	movt	sl, #0
    8c00:	e0833101 	add	r3, r3, r1, lsl #2
    8c04:	e5902000 	ldr	r2, [r0]
    8c08:	e08a1201 	add	r1, sl, r1, lsl #4
    8c0c:	e0844002 	add	r4, r4, r2
    8c10:	e2419004 	sub	r9, r1, #4
    8c14:	e08aa103 	add	sl, sl, r3, lsl #2
    8c18:	e5b92004 	ldr	r2, [r9, #4]!
    8c1c:	e3a03000 	mov	r3, #0
    8c20:	e5d07028 	ldrb	r7, [r0, #40]	; 0x28
    8c24:	e203c007 	and	ip, r3, #7
    8c28:	e5d06029 	ldrb	r6, [r0, #41]	; 0x29
    8c2c:	e3520000 	cmp	r2, #0
    8c30:	e00e0c98 	mul	lr, r8, ip
    8c34:	e5d0502a 	ldrb	r5, [r0, #42]	; 0x2a
    8c38:	e2833001 	add	r3, r3, #1
    8c3c:	e084100e 	add	r1, r4, lr
    8c40:	b5d07024 	ldrblt	r7, [r0, #36]	; 0x24
    8c44:	b5d06025 	ldrblt	r6, [r0, #37]	; 0x25
    8c48:	b5d05026 	ldrblt	r5, [r0, #38]	; 0x26
    8c4c:	e35c0007 	cmp	ip, #7
    8c50:	e7c4700e 	strb	r7, [r4, lr]
    8c54:	e5c16001 	strb	r6, [r1, #1]
    8c58:	e5c15002 	strb	r5, [r1, #2]
    8c5c:	05901010 	ldreq	r1, [r0, #16]
    8c60:	e1a02082 	lsl	r2, r2, #1
    8c64:	00244198 	mlaeq	r4, r8, r1, r4
    8c68:	e3530020 	cmp	r3, #32
    8c6c:	1affffeb 	bne	8c20 <WriteChar24+0x4c>
    8c70:	e159000a 	cmp	r9, sl
    8c74:	1affffe7 	bne	8c18 <WriteChar24+0x44>
    8c78:	e8bd87f0 	pop	{r4, r5, r6, r7, r8, r9, sl, pc}

00008c7c <TransparentWriteChar24>:
    8c7c:	e92d4ff0 	push	{r4, r5, r6, r7, r8, r9, sl, fp, lr}
    8c80:	e1a0b000 	mov	fp, r0
    8c84:	e5900010 	ldr	r0, [r0, #16]
    8c88:	e3a02003 	mov	r2, #3
    8c8c:	e59bc014 	ldr	ip, [fp, #20]
    8c90:	e1a0900b 	mov	r9, fp
    8c94:	e0070092 	mul	r7, r2, r0
    8c98:	e59be018 	ldr	lr, [fp, #24]
    8c9c:	e30e33a4 	movw	r3, #58276	; 0xe3a4
    8ca0:	e0000c92 	mul	r0, r2, ip
    8ca4:	e027079e 	mla	r7, lr, r7, r0
    8ca8:	e3403000 	movt	r3, #0
    8cac:	e1a08002 	mov	r8, r2
    8cb0:	e4990024 	ldr	r0, [r9], #36	; 0x24
    8cb4:	e24dd00c 	sub	sp, sp, #12
    8cb8:	e0822101 	add	r2, r2, r1, lsl #2
    8cbc:	e0831201 	add	r1, r3, r1, lsl #4
    8cc0:	e0877000 	add	r7, r7, r0
    8cc4:	e241a004 	sub	sl, r1, #4
    8cc8:	e0833102 	add	r3, r3, r2, lsl #2
    8ccc:	e58d3004 	str	r3, [sp, #4]
    8cd0:	e5ba5004 	ldr	r5, [sl, #4]!
    8cd4:	e3a04000 	mov	r4, #0
    8cd8:	ea000005 	b	8cf4 <TransparentWriteChar24+0x78>
    8cdc:	e1a05085 	lsl	r5, r5, #1
    8ce0:	e3560007 	cmp	r6, #7
    8ce4:	059b2010 	ldreq	r2, [fp, #16]
    8ce8:	00277298 	mlaeq	r7, r8, r2, r7
    8cec:	e3540020 	cmp	r4, #32
    8cf0:	0a000008 	beq	8d18 <TransparentWriteChar24+0x9c>
    8cf4:	e3550000 	cmp	r5, #0
    8cf8:	e2046007 	and	r6, r4, #7
    8cfc:	e2844001 	add	r4, r4, #1
    8d00:	aafffff5 	bge	8cdc <TransparentWriteChar24+0x60>
    8d04:	e3a02003 	mov	r2, #3
    8d08:	e1a01009 	mov	r1, r9
    8d0c:	e0207698 	mla	r0, r8, r6, r7
    8d10:	fa001528 	blx	e1b8 <memcpy>
    8d14:	eafffff0 	b	8cdc <TransparentWriteChar24+0x60>
    8d18:	e59d3004 	ldr	r3, [sp, #4]
    8d1c:	e153000a 	cmp	r3, sl
    8d20:	1affffea 	bne	8cd0 <TransparentWriteChar24+0x54>
    8d24:	e28dd00c 	add	sp, sp, #12
    8d28:	e8bd8ff0 	pop	{r4, r5, r6, r7, r8, r9, sl, fp, pc}

00008d2c <PutImage24>:
    8d2c:	e92d4ff0 	push	{r4, r5, r6, r7, r8, r9, sl, fp, lr}
    8d30:	e3a0e003 	mov	lr, #3
    8d34:	e590c010 	ldr	ip, [r0, #16]
    8d38:	e2529000 	subs	r9, r2, #0
    8d3c:	e5904014 	ldr	r4, [r0, #20]
    8d40:	e24dd00c 	sub	sp, sp, #12
    8d44:	e00c0c9e 	mul	ip, lr, ip
    8d48:	e5902018 	ldr	r2, [r0, #24]
    8d4c:	e004049e 	mul	r4, lr, r4
    8d50:	e02c4c92 	mla	ip, r2, ip, r4
    8d54:	e5904000 	ldr	r4, [r0]
    8d58:	e5ddb034 	ldrb	fp, [sp, #52]	; 0x34
    8d5c:	e08c4004 	add	r4, ip, r4
    8d60:	0a000019 	beq	8dcc <PutImage24+0xa0>
    8d64:	e3510000 	cmp	r1, #0
    8d68:	0a000017 	beq	8dcc <PutImage24+0xa0>
    8d6c:	e59d5030 	ldr	r5, [sp, #48]	; 0x30
    8d70:	e1a08000 	mov	r8, r0
    8d74:	e006019e 	mul	r6, lr, r1
    8d78:	e58d3004 	str	r3, [sp, #4]
    8d7c:	e3a07000 	mov	r7, #0
    8d80:	e58de000 	str	lr, [sp]
    8d84:	e3a0a000 	mov	sl, #0
    8d88:	e085100a 	add	r1, r5, sl
    8d8c:	e3a02003 	mov	r2, #3
    8d90:	e084000a 	add	r0, r4, sl
    8d94:	e08aa002 	add	sl, sl, r2
    8d98:	fa001506 	blx	e1b8 <memcpy>
    8d9c:	e15a0006 	cmp	sl, r6
    8da0:	1afffff8 	bne	8d88 <PutImage24+0x5c>
    8da4:	e5983010 	ldr	r3, [r8, #16]
    8da8:	e35b0000 	cmp	fp, #0
    8dac:	e2877001 	add	r7, r7, #1
    8db0:	0a000007 	beq	8dd4 <PutImage24+0xa8>
    8db4:	e59d2004 	ldr	r2, [sp, #4]
    8db8:	e1590007 	cmp	r9, r7
    8dbc:	e0855002 	add	r5, r5, r2
    8dc0:	e59d2000 	ldr	r2, [sp]
    8dc4:	e0644392 	mls	r4, r2, r3, r4
    8dc8:	1affffed 	bne	8d84 <PutImage24+0x58>
    8dcc:	e28dd00c 	add	sp, sp, #12
    8dd0:	e8bd8ff0 	pop	{r4, r5, r6, r7, r8, r9, sl, fp, pc}
    8dd4:	e59d2004 	ldr	r2, [sp, #4]
    8dd8:	e1590007 	cmp	r9, r7
    8ddc:	e0855002 	add	r5, r5, r2
    8de0:	e59d2000 	ldr	r2, [sp]
    8de4:	e0244392 	mla	r4, r2, r3, r4
    8de8:	1affffe5 	bne	8d84 <PutImage24+0x58>
    8dec:	e28dd00c 	add	sp, sp, #12
    8df0:	e8bd8ff0 	pop	{r4, r5, r6, r7, r8, r9, sl, fp, pc}

00008df4 <ClearArea32>:
    8df4:	e92d4010 	push	{r4, lr}
    8df8:	e59d4008 	ldr	r4, [sp, #8]
    8dfc:	e590c010 	ldr	ip, [r0, #16]
    8e00:	e590e000 	ldr	lr, [r0]
    8e04:	e0544002 	subs	r4, r4, r2
    8e08:	e28cc001 	add	ip, ip, #1
    8e0c:	e1a02102 	lsl	r2, r2, #2
    8e10:	e02cec92 	mla	ip, r2, ip, lr
    8e14:	08bd8010 	popeq	{r4, pc}
    8e18:	e0531001 	subs	r1, r3, r1
    8e1c:	13a0e000 	movne	lr, #0
    8e20:	0a00000b 	beq	8e54 <ClearArea32+0x60>
    8e24:	e3a03000 	mov	r3, #0
    8e28:	e590202c 	ldr	r2, [r0, #44]	; 0x2c
    8e2c:	e78c2103 	str	r2, [ip, r3, lsl #2]
    8e30:	e2833001 	add	r3, r3, #1
    8e34:	e1510003 	cmp	r1, r3
    8e38:	1afffffa 	bne	8e28 <ClearArea32+0x34>
    8e3c:	e5903010 	ldr	r3, [r0, #16]
    8e40:	e28ee001 	add	lr, lr, #1
    8e44:	e15e0004 	cmp	lr, r4
    8e48:	e08cc103 	add	ip, ip, r3, lsl #2
    8e4c:	1afffff4 	bne	8e24 <ClearArea32+0x30>
    8e50:	e8bd8010 	pop	{r4, pc}
    8e54:	e8bd8010 	pop	{r4, pc}

00008e58 <VertLine32>:
    8e58:	e590c010 	ldr	ip, [r0, #16]
    8e5c:	e3510000 	cmp	r1, #0
    8e60:	e5903014 	ldr	r3, [r0, #20]
    8e64:	e52de004 	push	{lr}		; (str lr, [sp, #-4]!)
    8e68:	e590e018 	ldr	lr, [r0, #24]
    8e6c:	e1a0c10c 	lsl	ip, ip, #2
    8e70:	e1a03103 	lsl	r3, r3, #2
    8e74:	e0233c9e 	mla	r3, lr, ip, r3
    8e78:	e590c000 	ldr	ip, [r0]
    8e7c:	e083300c 	add	r3, r3, ip
    8e80:	049df004 	popeq	{pc}		; (ldreq pc, [sp], #4)
    8e84:	e3520001 	cmp	r2, #1
    8e88:	e3a02000 	mov	r2, #0
    8e8c:	0a000007 	beq	8eb0 <VertLine32+0x58>
    8e90:	e590c024 	ldr	ip, [r0, #36]	; 0x24
    8e94:	e2822001 	add	r2, r2, #1
    8e98:	e1510002 	cmp	r1, r2
    8e9c:	e583c000 	str	ip, [r3]
    8ea0:	e590c010 	ldr	ip, [r0, #16]
    8ea4:	e043310c 	sub	r3, r3, ip, lsl #2
    8ea8:	1afffff8 	bne	8e90 <VertLine32+0x38>
    8eac:	e49df004 	pop	{pc}		; (ldr pc, [sp], #4)
    8eb0:	e590c024 	ldr	ip, [r0, #36]	; 0x24
    8eb4:	e2822001 	add	r2, r2, #1
    8eb8:	e1510002 	cmp	r1, r2
    8ebc:	e583c000 	str	ip, [r3]
    8ec0:	e590c010 	ldr	ip, [r0, #16]
    8ec4:	e083310c 	add	r3, r3, ip, lsl #2
    8ec8:	1afffff8 	bne	8eb0 <VertLine32+0x58>
    8ecc:	e49df004 	pop	{pc}		; (ldr pc, [sp], #4)

00008ed0 <HorzLine32>:
    8ed0:	e2803010 	add	r3, r0, #16
    8ed4:	e3510000 	cmp	r1, #0
    8ed8:	e52de004 	push	{lr}		; (str lr, [sp, #-4]!)
    8edc:	e8935008 	ldm	r3, {r3, ip, lr}
    8ee0:	e1a03103 	lsl	r3, r3, #2
    8ee4:	e1a0c10c 	lsl	ip, ip, #2
    8ee8:	e02cc39e 	mla	ip, lr, r3, ip
    8eec:	e5903000 	ldr	r3, [r0]
    8ef0:	e08cc003 	add	ip, ip, r3
    8ef4:	049df004 	popeq	{pc}		; (ldreq pc, [sp], #4)
    8ef8:	e1a02102 	lsl	r2, r2, #2
    8efc:	e3a03000 	mov	r3, #0
    8f00:	e590e024 	ldr	lr, [r0, #36]	; 0x24
    8f04:	e2833001 	add	r3, r3, #1
    8f08:	e1510003 	cmp	r1, r3
    8f0c:	e68ce002 	str	lr, [ip], r2
    8f10:	1afffffa 	bne	8f00 <HorzLine32+0x30>
    8f14:	e49df004 	pop	{pc}		; (ldr pc, [sp], #4)

00008f18 <DiagLine32>:
    8f18:	e92d40f0 	push	{r4, r5, r6, r7, lr}
    8f1c:	e590e010 	ldr	lr, [r0, #16]
    8f20:	e5904014 	ldr	r4, [r0, #20]
    8f24:	e5905018 	ldr	r5, [r0, #24]
    8f28:	e1510002 	cmp	r1, r2
    8f2c:	e1a0e10e 	lsl	lr, lr, #2
    8f30:	31a02001 	movcc	r2, r1
    8f34:	e1a0c104 	lsl	ip, r4, #2
    8f38:	e3510000 	cmp	r1, #0
    8f3c:	e02cce95 	mla	ip, r5, lr, ip
    8f40:	e590e000 	ldr	lr, [r0]
    8f44:	e08cc00e 	add	ip, ip, lr
    8f48:	08bd80f0 	popeq	{r4, r5, r6, r7, pc}
    8f4c:	e59d4014 	ldr	r4, [sp, #20]
    8f50:	e3a05000 	mov	r5, #0
    8f54:	e1a03103 	lsl	r3, r3, #2
    8f58:	e1a0e005 	mov	lr, r5
    8f5c:	e1a07104 	lsl	r7, r4, #2
    8f60:	e5904024 	ldr	r4, [r0, #36]	; 0x24
    8f64:	e2855001 	add	r5, r5, #1
    8f68:	e08ee002 	add	lr, lr, r2
    8f6c:	e68c4003 	str	r4, [ip], r3
    8f70:	e5904010 	ldr	r4, [r0, #16]
    8f74:	e151000e 	cmp	r1, lr
    8f78:	e024c794 	mla	r4, r4, r7, ip
    8f7c:	e04e6001 	sub	r6, lr, r1
    8f80:	91a0c004 	movls	ip, r4
    8f84:	91a0e006 	movls	lr, r6
    8f88:	e1510005 	cmp	r1, r5
    8f8c:	1afffff3 	bne	8f60 <DiagLine32+0x48>
    8f90:	e8bd80f0 	pop	{r4, r5, r6, r7, pc}

00008f94 <WriteChar32>:
    8f94:	e92d4030 	push	{r4, r5, lr}
    8f98:	e30e33a4 	movw	r3, #58276	; 0xe3a4
    8f9c:	e590e010 	ldr	lr, [r0, #16]
    8fa0:	e24dd00c 	sub	sp, sp, #12
    8fa4:	e5902014 	ldr	r2, [r0, #20]
    8fa8:	e590c018 	ldr	ip, [r0, #24]
    8fac:	e1a02102 	lsl	r2, r2, #2
    8fb0:	e3403000 	movt	r3, #0
    8fb4:	e1a0e10e 	lsl	lr, lr, #2
    8fb8:	e02e2e9c 	mla	lr, ip, lr, r2
    8fbc:	e0834201 	add	r4, r3, r1, lsl #4
    8fc0:	e5902000 	ldr	r2, [r0]
    8fc4:	e1a03004 	mov	r3, r4
    8fc8:	e283500c 	add	r5, r3, #12
    8fcc:	e2444004 	sub	r4, r4, #4
    8fd0:	e08ee002 	add	lr, lr, r2
    8fd4:	e5b42004 	ldr	r2, [r4, #4]!
    8fd8:	e3a03000 	mov	r3, #0
    8fdc:	e3520000 	cmp	r2, #0
    8fe0:	e2031007 	and	r1, r3, #7
    8fe4:	e1a02082 	lsl	r2, r2, #1
    8fe8:	e2833001 	add	r3, r3, #1
    8fec:	a590c028 	ldrge	ip, [r0, #40]	; 0x28
    8ff0:	b590c024 	ldrlt	ip, [r0, #36]	; 0x24
    8ff4:	e3510007 	cmp	r1, #7
    8ff8:	e78ec101 	str	ip, [lr, r1, lsl #2]
    8ffc:	05901010 	ldreq	r1, [r0, #16]
    9000:	e58dc004 	str	ip, [sp, #4]
    9004:	008ee101 	addeq	lr, lr, r1, lsl #2
    9008:	e3530020 	cmp	r3, #32
    900c:	1afffff2 	bne	8fdc <WriteChar32+0x48>
    9010:	e1550004 	cmp	r5, r4
    9014:	1affffee 	bne	8fd4 <WriteChar32+0x40>
    9018:	e28dd00c 	add	sp, sp, #12
    901c:	e8bd8030 	pop	{r4, r5, pc}

00009020 <TransparentWriteChar32>:
    9020:	e590c010 	ldr	ip, [r0, #16]
    9024:	e30e33a4 	movw	r3, #58276	; 0xe3a4
    9028:	e5902014 	ldr	r2, [r0, #20]
    902c:	e92d4030 	push	{r4, r5, lr}
    9030:	e590e018 	ldr	lr, [r0, #24]
    9034:	e1a02102 	lsl	r2, r2, #2
    9038:	e3403000 	movt	r3, #0
    903c:	e1a0c10c 	lsl	ip, ip, #2
    9040:	e02c2c9e 	mla	ip, lr, ip, r2
    9044:	e0834201 	add	r4, r3, r1, lsl #4
    9048:	e5902000 	ldr	r2, [r0]
    904c:	e1a03004 	mov	r3, r4
    9050:	e283500c 	add	r5, r3, #12
    9054:	e2444004 	sub	r4, r4, #4
    9058:	e08cc002 	add	ip, ip, r2
    905c:	e5b42004 	ldr	r2, [r4, #4]!
    9060:	e3a03000 	mov	r3, #0
    9064:	e3520000 	cmp	r2, #0
    9068:	e2031007 	and	r1, r3, #7
    906c:	e1a02082 	lsl	r2, r2, #1
    9070:	e2833001 	add	r3, r3, #1
    9074:	b590e024 	ldrlt	lr, [r0, #36]	; 0x24
    9078:	b78ce101 	strlt	lr, [ip, r1, lsl #2]
    907c:	e3510007 	cmp	r1, #7
    9080:	05901010 	ldreq	r1, [r0, #16]
    9084:	008cc101 	addeq	ip, ip, r1, lsl #2
    9088:	e3530020 	cmp	r3, #32
    908c:	1afffff4 	bne	9064 <TransparentWriteChar32+0x44>
    9090:	e1540005 	cmp	r4, r5
    9094:	1afffff0 	bne	905c <TransparentWriteChar32+0x3c>
    9098:	e8bd8030 	pop	{r4, r5, pc}

0000909c <PutImage32>:
    909c:	e92d40f0 	push	{r4, r5, r6, r7, lr}
    90a0:	e3520000 	cmp	r2, #0
    90a4:	e590c010 	ldr	ip, [r0, #16]
    90a8:	e590e014 	ldr	lr, [r0, #20]
    90ac:	e5905018 	ldr	r5, [r0, #24]
    90b0:	e1a0410c 	lsl	r4, ip, #2
    90b4:	e1a0e10e 	lsl	lr, lr, #2
    90b8:	e024e495 	mla	r4, r5, r4, lr
    90bc:	e590c000 	ldr	ip, [r0]
    90c0:	e5dd7018 	ldrb	r7, [sp, #24]
    90c4:	e084400c 	add	r4, r4, ip
    90c8:	08bd80f0 	popeq	{r4, r5, r6, r7, pc}
    90cc:	e3510000 	cmp	r1, #0
    90d0:	08bd80f0 	popeq	{r4, r5, r6, r7, pc}
    90d4:	e59d5014 	ldr	r5, [sp, #20]
    90d8:	e3a06000 	mov	r6, #0
    90dc:	e3a0c000 	mov	ip, #0
    90e0:	e795e10c 	ldr	lr, [r5, ip, lsl #2]
    90e4:	e784e10c 	str	lr, [r4, ip, lsl #2]
    90e8:	e28cc001 	add	ip, ip, #1
    90ec:	e151000c 	cmp	r1, ip
    90f0:	1afffffa 	bne	90e0 <PutImage32+0x44>
    90f4:	e590c010 	ldr	ip, [r0, #16]
    90f8:	e3570000 	cmp	r7, #0
    90fc:	e2866001 	add	r6, r6, #1
    9100:	0a000004 	beq	9118 <PutImage32+0x7c>
    9104:	e1520006 	cmp	r2, r6
    9108:	e0855003 	add	r5, r5, r3
    910c:	e044410c 	sub	r4, r4, ip, lsl #2
    9110:	1afffff1 	bne	90dc <PutImage32+0x40>
    9114:	e8bd80f0 	pop	{r4, r5, r6, r7, pc}
    9118:	e1520006 	cmp	r2, r6
    911c:	e0855003 	add	r5, r5, r3
    9120:	e084410c 	add	r4, r4, ip, lsl #2
    9124:	1affffec 	bne	90dc <PutImage32+0x40>
    9128:	e8bd80f0 	pop	{r4, r5, r6, r7, pc}

0000912c <miniuart_getc>:
    912c:	e30f3584 	movw	r3, #62852	; 0xf584
    9130:	e3403000 	movt	r3, #0
    9134:	e5932000 	ldr	r2, [r3]
    9138:	e2822985 	add	r2, r2, #2179072	; 0x214000
    913c:	e2822d41 	add	r2, r2, #4160	; 0x1040
    9140:	e5923014 	ldr	r3, [r2, #20]
    9144:	e3130001 	tst	r3, #1
    9148:	0afffffc 	beq	9140 <miniuart_getc+0x14>
    914c:	e5920000 	ldr	r0, [r2]
    9150:	e6ef0070 	uxtb	r0, r0
    9154:	e12fff1e 	bx	lr

00009158 <miniuart_putc>:
    9158:	e30f3584 	movw	r3, #62852	; 0xf584
    915c:	e3403000 	movt	r3, #0
    9160:	e5932000 	ldr	r2, [r3]
    9164:	e2822985 	add	r2, r2, #2179072	; 0x214000
    9168:	e2822d41 	add	r2, r2, #4160	; 0x1040
    916c:	e5923014 	ldr	r3, [r2, #20]
    9170:	e3130020 	tst	r3, #32
    9174:	0afffffc 	beq	916c <miniuart_putc+0x14>
    9178:	e5923000 	ldr	r3, [r2]
    917c:	e7c73010 	bfi	r3, r0, #0, #8
    9180:	e5823000 	str	r3, [r2]
    9184:	e12fff1e 	bx	lr

00009188 <miniuart_puts>:
    9188:	e3500000 	cmp	r0, #0
    918c:	012fff1e 	bxeq	lr
    9190:	e5d01000 	ldrb	r1, [r0]
    9194:	e3510000 	cmp	r1, #0
    9198:	012fff1e 	bxeq	lr
    919c:	e30fc584 	movw	ip, #62852	; 0xf584
    91a0:	e340c000 	movt	ip, #0
    91a4:	e59c2000 	ldr	r2, [ip]
    91a8:	e2822985 	add	r2, r2, #2179072	; 0x214000
    91ac:	e2822d41 	add	r2, r2, #4160	; 0x1040
    91b0:	e5923014 	ldr	r3, [r2, #20]
    91b4:	e3130020 	tst	r3, #32
    91b8:	0afffffc 	beq	91b0 <miniuart_puts+0x28>
    91bc:	e5923000 	ldr	r3, [r2]
    91c0:	e7c73011 	bfi	r3, r1, #0, #8
    91c4:	e5823000 	str	r3, [r2]
    91c8:	e5f01001 	ldrb	r1, [r0, #1]!
    91cc:	e3510000 	cmp	r1, #0
    91d0:	1afffff3 	bne	91a4 <miniuart_puts+0x1c>
    91d4:	e12fff1e 	bx	lr

000091d8 <pl011_uart_getc>:
    91d8:	e30f3584 	movw	r3, #62852	; 0xf584
    91dc:	e3403000 	movt	r3, #0
    91e0:	e5932000 	ldr	r2, [r3]
    91e4:	e2822602 	add	r2, r2, #2097152	; 0x200000
    91e8:	e2822a01 	add	r2, r2, #4096	; 0x1000
    91ec:	e5923018 	ldr	r3, [r2, #24]
    91f0:	e3130010 	tst	r3, #16
    91f4:	1afffffc 	bne	91ec <pl011_uart_getc+0x14>
    91f8:	e5920000 	ldr	r0, [r2]
    91fc:	e6ef0070 	uxtb	r0, r0
    9200:	e12fff1e 	bx	lr

00009204 <pl011_uart_putc>:
    9204:	e30f3584 	movw	r3, #62852	; 0xf584
    9208:	e3403000 	movt	r3, #0
    920c:	e5932000 	ldr	r2, [r3]
    9210:	e2822602 	add	r2, r2, #2097152	; 0x200000
    9214:	e2822a01 	add	r2, r2, #4096	; 0x1000
    9218:	e5923018 	ldr	r3, [r2, #24]
    921c:	e3130020 	tst	r3, #32
    9220:	1afffffc 	bne	9218 <pl011_uart_putc+0x14>
    9224:	e5923000 	ldr	r3, [r2]
    9228:	e7c73010 	bfi	r3, r0, #0, #8
    922c:	e5823000 	str	r3, [r2]
    9230:	e12fff1e 	bx	lr

00009234 <pl011_uart_puts>:
    9234:	e3500000 	cmp	r0, #0
    9238:	012fff1e 	bxeq	lr
    923c:	e5d01000 	ldrb	r1, [r0]
    9240:	e3510000 	cmp	r1, #0
    9244:	012fff1e 	bxeq	lr
    9248:	e30fc584 	movw	ip, #62852	; 0xf584
    924c:	e340c000 	movt	ip, #0
    9250:	e59c2000 	ldr	r2, [ip]
    9254:	e2822602 	add	r2, r2, #2097152	; 0x200000
    9258:	e2822a01 	add	r2, r2, #4096	; 0x1000
    925c:	e5923018 	ldr	r3, [r2, #24]
    9260:	e3130020 	tst	r3, #32
    9264:	1afffffc 	bne	925c <pl011_uart_puts+0x28>
    9268:	e5923000 	ldr	r3, [r2]
    926c:	e7c73011 	bfi	r3, r1, #0, #8
    9270:	e5823000 	str	r3, [r2]
    9274:	e5f01001 	ldrb	r1, [r0, #1]!
    9278:	e3510000 	cmp	r1, #0
    927c:	1afffff3 	bne	9250 <pl011_uart_puts+0x1c>
    9280:	e12fff1e 	bx	lr

00009284 <mailbox_tag_message.constprop.7>:
    9284:	e92d000e 	push	{r1, r2, r3}
    9288:	e3a02000 	mov	r2, #0
    928c:	e92d48f0 	push	{r4, r5, r6, r7, fp, lr}
    9290:	e28db014 	add	fp, sp, #20
    9294:	e24dd014 	sub	sp, sp, #20
    9298:	e59b1014 	ldr	r1, [fp, #20]
    929c:	e24dd090 	sub	sp, sp, #144	; 0x90
    92a0:	e59b6008 	ldr	r6, [fp, #8]
    92a4:	e28d400f 	add	r4, sp, #15
    92a8:	e3c4400f 	bic	r4, r4, #15
    92ac:	e3a0701c 	mov	r7, #28
    92b0:	e59be00c 	ldr	lr, [fp, #12]
    92b4:	e28b3008 	add	r3, fp, #8
    92b8:	e59bc010 	ldr	ip, [fp, #16]
    92bc:	e1a05000 	mov	r5, r0
    92c0:	e5841014 	str	r1, [r4, #20]
    92c4:	e1a00004 	mov	r0, r4
    92c8:	e5842018 	str	r2, [r4, #24]
    92cc:	e5842004 	str	r2, [r4, #4]
    92d0:	e5847000 	str	r7, [r4]
    92d4:	e5846008 	str	r6, [r4, #8]
    92d8:	e584e00c 	str	lr, [r4, #12]
    92dc:	e584c010 	str	ip, [r4, #16]
    92e0:	e50b3024 	str	r3, [fp, #-36]	; 0xffffffdc
    92e4:	ebfffc91 	bl	8530 <ARMaddrToGPUaddr>
    92e8:	e3c0100f 	bic	r1, r0, #15
    92ec:	e30f3584 	movw	r3, #62852	; 0xf584
    92f0:	e3403000 	movt	r3, #0
    92f4:	e3811008 	orr	r1, r1, #8
    92f8:	e5932000 	ldr	r2, [r3]
    92fc:	e2822b2e 	add	r2, r2, #47104	; 0xb800
    9300:	e2822080 	add	r2, r2, #128	; 0x80
    9304:	e5923038 	ldr	r3, [r2, #56]	; 0x38
    9308:	e50b301c 	str	r3, [fp, #-28]	; 0xffffffe4
    930c:	e51b301c 	ldr	r3, [fp, #-28]	; 0xffffffe4
    9310:	e3530000 	cmp	r3, #0
    9314:	bafffffa 	blt	9304 <mailbox_tag_message.constprop.7+0x80>
    9318:	e5821020 	str	r1, [r2, #32]
    931c:	e5923018 	ldr	r3, [r2, #24]
    9320:	e50b3020 	str	r3, [fp, #-32]	; 0xffffffe0
    9324:	e51b0020 	ldr	r0, [fp, #-32]	; 0xffffffe0
    9328:	e2100101 	ands	r0, r0, #1073741824	; 0x40000000
    932c:	1afffffa 	bne	931c <mailbox_tag_message.constprop.7+0x98>
    9330:	e5923000 	ldr	r3, [r2]
    9334:	e50b3020 	str	r3, [fp, #-32]	; 0xffffffe0
    9338:	e51b3020 	ldr	r3, [fp, #-32]	; 0xffffffe0
    933c:	e203300f 	and	r3, r3, #15
    9340:	e3530008 	cmp	r3, #8
    9344:	1afffff4 	bne	931c <mailbox_tag_message.constprop.7+0x98>
    9348:	e51b3020 	ldr	r3, [fp, #-32]	; 0xffffffe0
    934c:	e5942004 	ldr	r2, [r4, #4]
    9350:	e3c3300f 	bic	r3, r3, #15
    9354:	e50b3020 	str	r3, [fp, #-32]	; 0xffffffe0
    9358:	e3520102 	cmp	r2, #-2147483648	; 0x80000000
    935c:	e51b3020 	ldr	r3, [fp, #-32]	; 0xffffffe0
    9360:	0a000003 	beq	9374 <mailbox_tag_message.constprop.7+0xf0>
    9364:	e24bd014 	sub	sp, fp, #20
    9368:	e8bd48f0 	pop	{r4, r5, r6, r7, fp, lr}
    936c:	e28dd00c 	add	sp, sp, #12
    9370:	e12fff1e 	bx	lr
    9374:	e3550000 	cmp	r5, #0
    9378:	12840008 	addne	r0, r4, #8
    937c:	1890000f 	ldmne	r0, {r0, r1, r2, r3}
    9380:	1885000f 	stmne	r5, {r0, r1, r2, r3}
    9384:	e3a00001 	mov	r0, #1
    9388:	e24bd014 	sub	sp, fp, #20
    938c:	e8bd48f0 	pop	{r4, r5, r6, r7, fp, lr}
    9390:	e28dd00c 	add	sp, sp, #12
    9394:	e12fff1e 	bx	lr

00009398 <mailbox_tag_message.constprop.8>:
    9398:	e92d000e 	push	{r1, r2, r3}
    939c:	e3a02000 	mov	r2, #0
    93a0:	e92d48f0 	push	{r4, r5, r6, r7, fp, lr}
    93a4:	e28db014 	add	fp, sp, #20
    93a8:	e24dd014 	sub	sp, sp, #20
    93ac:	e24dd090 	sub	sp, sp, #144	; 0x90
    93b0:	e1a05000 	mov	r5, r0
    93b4:	e28d700f 	add	r7, sp, #15
    93b8:	e28b3004 	add	r3, fp, #4
    93bc:	e3c7700f 	bic	r7, r7, #15
    93c0:	e1a06007 	mov	r6, r7
    93c4:	e2871060 	add	r1, r7, #96	; 0x60
    93c8:	e5872064 	str	r2, [r7, #100]	; 0x64
    93cc:	e5a62004 	str	r2, [r6, #4]!
    93d0:	e3a02068 	mov	r2, #104	; 0x68
    93d4:	e5872000 	str	r2, [r7]
    93d8:	e1a04006 	mov	r4, r6
    93dc:	e28b2008 	add	r2, fp, #8
    93e0:	e50b2024 	str	r2, [fp, #-36]	; 0xffffffdc
    93e4:	e5b32004 	ldr	r2, [r3, #4]!
    93e8:	e5a42004 	str	r2, [r4, #4]!
    93ec:	e1540001 	cmp	r4, r1
    93f0:	1afffffb 	bne	93e4 <mailbox_tag_message.constprop.8+0x4c>
    93f4:	e1a00007 	mov	r0, r7
    93f8:	ebfffc4c 	bl	8530 <ARMaddrToGPUaddr>
    93fc:	e3c0100f 	bic	r1, r0, #15
    9400:	e30f3584 	movw	r3, #62852	; 0xf584
    9404:	e3403000 	movt	r3, #0
    9408:	e3811008 	orr	r1, r1, #8
    940c:	e5932000 	ldr	r2, [r3]
    9410:	e2822b2e 	add	r2, r2, #47104	; 0xb800
    9414:	e2822080 	add	r2, r2, #128	; 0x80
    9418:	e5923038 	ldr	r3, [r2, #56]	; 0x38
    941c:	e50b301c 	str	r3, [fp, #-28]	; 0xffffffe4
    9420:	e51b301c 	ldr	r3, [fp, #-28]	; 0xffffffe4
    9424:	e3530000 	cmp	r3, #0
    9428:	bafffffa 	blt	9418 <mailbox_tag_message.constprop.8+0x80>
    942c:	e5821020 	str	r1, [r2, #32]
    9430:	e5923018 	ldr	r3, [r2, #24]
    9434:	e50b3020 	str	r3, [fp, #-32]	; 0xffffffe0
    9438:	e51b0020 	ldr	r0, [fp, #-32]	; 0xffffffe0
    943c:	e2100101 	ands	r0, r0, #1073741824	; 0x40000000
    9440:	1afffffa 	bne	9430 <mailbox_tag_message.constprop.8+0x98>
    9444:	e5923000 	ldr	r3, [r2]
    9448:	e50b3020 	str	r3, [fp, #-32]	; 0xffffffe0
    944c:	e51b3020 	ldr	r3, [fp, #-32]	; 0xffffffe0
    9450:	e203300f 	and	r3, r3, #15
    9454:	e3530008 	cmp	r3, #8
    9458:	1afffff4 	bne	9430 <mailbox_tag_message.constprop.8+0x98>
    945c:	e51b3020 	ldr	r3, [fp, #-32]	; 0xffffffe0
    9460:	e5972004 	ldr	r2, [r7, #4]
    9464:	e3c3300f 	bic	r3, r3, #15
    9468:	e50b3020 	str	r3, [fp, #-32]	; 0xffffffe0
    946c:	e3520102 	cmp	r2, #-2147483648	; 0x80000000
    9470:	e51b3020 	ldr	r3, [fp, #-32]	; 0xffffffe0
    9474:	0a000003 	beq	9488 <mailbox_tag_message.constprop.8+0xf0>
    9478:	e24bd014 	sub	sp, fp, #20
    947c:	e8bd48f0 	pop	{r4, r5, r6, r7, fp, lr}
    9480:	e28dd00c 	add	sp, sp, #12
    9484:	e12fff1e 	bx	lr
    9488:	e3550000 	cmp	r5, #0
    948c:	12455004 	subne	r5, r5, #4
    9490:	0a000003 	beq	94a4 <mailbox_tag_message.constprop.8+0x10c>
    9494:	e5b63004 	ldr	r3, [r6, #4]!
    9498:	e1560004 	cmp	r6, r4
    949c:	e5a53004 	str	r3, [r5, #4]!
    94a0:	1afffffb 	bne	9494 <mailbox_tag_message.constprop.8+0xfc>
    94a4:	e3a00001 	mov	r0, #1
    94a8:	e24bd014 	sub	sp, fp, #20
    94ac:	e8bd48f0 	pop	{r4, r5, r6, r7, fp, lr}
    94b0:	e28dd00c 	add	sp, sp, #12
    94b4:	e12fff1e 	bx	lr

000094b8 <mailbox_tag_message.constprop.5>:
    94b8:	e92d000e 	push	{r1, r2, r3}
    94bc:	e3a01020 	mov	r1, #32
    94c0:	e92d4870 	push	{r4, r5, r6, fp, lr}
    94c4:	e28db010 	add	fp, sp, #16
    94c8:	e24dd010 	sub	sp, sp, #16
    94cc:	e59b6008 	ldr	r6, [fp, #8]
    94d0:	e24dd090 	sub	sp, sp, #144	; 0x90
    94d4:	e59b500c 	ldr	r5, [fp, #12]
    94d8:	e28d400f 	add	r4, sp, #15
    94dc:	e3c4400f 	bic	r4, r4, #15
    94e0:	e3a02000 	mov	r2, #0
    94e4:	e59be010 	ldr	lr, [fp, #16]
    94e8:	e28b3008 	add	r3, fp, #8
    94ec:	e59bc014 	ldr	ip, [fp, #20]
    94f0:	e1a00004 	mov	r0, r4
    94f4:	e5841000 	str	r1, [r4]
    94f8:	e59b1018 	ldr	r1, [fp, #24]
    94fc:	e584201c 	str	r2, [r4, #28]
    9500:	e5841018 	str	r1, [r4, #24]
    9504:	e5842004 	str	r2, [r4, #4]
    9508:	e5846008 	str	r6, [r4, #8]
    950c:	e584500c 	str	r5, [r4, #12]
    9510:	e584e010 	str	lr, [r4, #16]
    9514:	e584c014 	str	ip, [r4, #20]
    9518:	e50b301c 	str	r3, [fp, #-28]	; 0xffffffe4
    951c:	ebfffc03 	bl	8530 <ARMaddrToGPUaddr>
    9520:	e3c0100f 	bic	r1, r0, #15
    9524:	e30f3584 	movw	r3, #62852	; 0xf584
    9528:	e3403000 	movt	r3, #0
    952c:	e3811008 	orr	r1, r1, #8
    9530:	e5932000 	ldr	r2, [r3]
    9534:	e2822b2e 	add	r2, r2, #47104	; 0xb800
    9538:	e2822080 	add	r2, r2, #128	; 0x80
    953c:	e5923038 	ldr	r3, [r2, #56]	; 0x38
    9540:	e50b3014 	str	r3, [fp, #-20]	; 0xffffffec
    9544:	e51b3014 	ldr	r3, [fp, #-20]	; 0xffffffec
    9548:	e3530000 	cmp	r3, #0
    954c:	bafffffa 	blt	953c <mailbox_tag_message.constprop.5+0x84>
    9550:	e5821020 	str	r1, [r2, #32]
    9554:	e5923018 	ldr	r3, [r2, #24]
    9558:	e50b3018 	str	r3, [fp, #-24]	; 0xffffffe8
    955c:	e51b3018 	ldr	r3, [fp, #-24]	; 0xffffffe8
    9560:	e3130101 	tst	r3, #1073741824	; 0x40000000
    9564:	1afffffa 	bne	9554 <mailbox_tag_message.constprop.5+0x9c>
    9568:	e5923000 	ldr	r3, [r2]
    956c:	e50b3018 	str	r3, [fp, #-24]	; 0xffffffe8
    9570:	e51b3018 	ldr	r3, [fp, #-24]	; 0xffffffe8
    9574:	e203300f 	and	r3, r3, #15
    9578:	e3530008 	cmp	r3, #8
    957c:	1afffff4 	bne	9554 <mailbox_tag_message.constprop.5+0x9c>
    9580:	e51b3018 	ldr	r3, [fp, #-24]	; 0xffffffe8
    9584:	e5940004 	ldr	r0, [r4, #4]
    9588:	e3c3300f 	bic	r3, r3, #15
    958c:	e50b3018 	str	r3, [fp, #-24]	; 0xffffffe8
    9590:	e2400102 	sub	r0, r0, #-2147483648	; 0x80000000
    9594:	e16f0f10 	clz	r0, r0
    9598:	e51b3018 	ldr	r3, [fp, #-24]	; 0xffffffe8
    959c:	e1a002a0 	lsr	r0, r0, #5
    95a0:	e24bd010 	sub	sp, fp, #16
    95a4:	e8bd4870 	pop	{r4, r5, r6, fp, lr}
    95a8:	e28dd00c 	add	sp, sp, #12
    95ac:	e12fff1e 	bx	lr

000095b0 <mailbox_tag_message.constprop.6>:
    95b0:	e92d000e 	push	{r1, r2, r3}
    95b4:	e3a02000 	mov	r2, #0
    95b8:	e92d48f0 	push	{r4, r5, r6, r7, fp, lr}
    95bc:	e28db014 	add	fp, sp, #20
    95c0:	e24dd014 	sub	sp, sp, #20
    95c4:	e59b1008 	ldr	r1, [fp, #8]
    95c8:	e24dd090 	sub	sp, sp, #144	; 0x90
    95cc:	e59b600c 	ldr	r6, [fp, #12]
    95d0:	e28d400f 	add	r4, sp, #15
    95d4:	e3c4400f 	bic	r4, r4, #15
    95d8:	e3a07020 	mov	r7, #32
    95dc:	e59be010 	ldr	lr, [fp, #16]
    95e0:	e28b3008 	add	r3, fp, #8
    95e4:	e59bc014 	ldr	ip, [fp, #20]
    95e8:	e1a05000 	mov	r5, r0
    95ec:	e5841008 	str	r1, [r4, #8]
    95f0:	e1a00004 	mov	r0, r4
    95f4:	e59b1018 	ldr	r1, [fp, #24]
    95f8:	e584201c 	str	r2, [r4, #28]
    95fc:	e5841018 	str	r1, [r4, #24]
    9600:	e5842004 	str	r2, [r4, #4]
    9604:	e5847000 	str	r7, [r4]
    9608:	e584600c 	str	r6, [r4, #12]
    960c:	e584e010 	str	lr, [r4, #16]
    9610:	e584c014 	str	ip, [r4, #20]
    9614:	e50b3024 	str	r3, [fp, #-36]	; 0xffffffdc
    9618:	ebfffbc4 	bl	8530 <ARMaddrToGPUaddr>
    961c:	e3c0100f 	bic	r1, r0, #15
    9620:	e30f3584 	movw	r3, #62852	; 0xf584
    9624:	e3403000 	movt	r3, #0
    9628:	e3811008 	orr	r1, r1, #8
    962c:	e5932000 	ldr	r2, [r3]
    9630:	e2822b2e 	add	r2, r2, #47104	; 0xb800
    9634:	e2822080 	add	r2, r2, #128	; 0x80
    9638:	e5923038 	ldr	r3, [r2, #56]	; 0x38
    963c:	e50b301c 	str	r3, [fp, #-28]	; 0xffffffe4
    9640:	e51b301c 	ldr	r3, [fp, #-28]	; 0xffffffe4
    9644:	e3530000 	cmp	r3, #0
    9648:	bafffffa 	blt	9638 <mailbox_tag_message.constprop.6+0x88>
    964c:	e5821020 	str	r1, [r2, #32]
    9650:	e5923018 	ldr	r3, [r2, #24]
    9654:	e50b3020 	str	r3, [fp, #-32]	; 0xffffffe0
    9658:	e51b0020 	ldr	r0, [fp, #-32]	; 0xffffffe0
    965c:	e2100101 	ands	r0, r0, #1073741824	; 0x40000000
    9660:	1afffffa 	bne	9650 <mailbox_tag_message.constprop.6+0xa0>
    9664:	e5923000 	ldr	r3, [r2]
    9668:	e50b3020 	str	r3, [fp, #-32]	; 0xffffffe0
    966c:	e51b3020 	ldr	r3, [fp, #-32]	; 0xffffffe0
    9670:	e203300f 	and	r3, r3, #15
    9674:	e3530008 	cmp	r3, #8
    9678:	1afffff4 	bne	9650 <mailbox_tag_message.constprop.6+0xa0>
    967c:	e51b3020 	ldr	r3, [fp, #-32]	; 0xffffffe0
    9680:	e5942004 	ldr	r2, [r4, #4]
    9684:	e3c3300f 	bic	r3, r3, #15
    9688:	e50b3020 	str	r3, [fp, #-32]	; 0xffffffe0
    968c:	e3520102 	cmp	r2, #-2147483648	; 0x80000000
    9690:	e51b3020 	ldr	r3, [fp, #-32]	; 0xffffffe0
    9694:	0a000003 	beq	96a8 <mailbox_tag_message.constprop.6+0xf8>
    9698:	e24bd014 	sub	sp, fp, #20
    969c:	e8bd48f0 	pop	{r4, r5, r6, r7, fp, lr}
    96a0:	e28dd00c 	add	sp, sp, #12
    96a4:	e12fff1e 	bx	lr
    96a8:	e3550000 	cmp	r5, #0
    96ac:	0a000004 	beq	96c4 <mailbox_tag_message.constprop.6+0x114>
    96b0:	e594c008 	ldr	ip, [r4, #8]
    96b4:	e284000c 	add	r0, r4, #12
    96b8:	e890000f 	ldm	r0, {r0, r1, r2, r3}
    96bc:	e585c000 	str	ip, [r5]
    96c0:	e985000f 	stmib	r5, {r0, r1, r2, r3}
    96c4:	e3a00001 	mov	r0, #1
    96c8:	e24bd014 	sub	sp, fp, #20
    96cc:	e8bd48f0 	pop	{r4, r5, r6, r7, fp, lr}
    96d0:	e28dd00c 	add	sp, sp, #12
    96d4:	e12fff1e 	bx	lr

000096d8 <miniuart_init>:
    96d8:	e92d40f0 	push	{r4, r5, r6, r7, lr}
    96dc:	e24dd02c 	sub	sp, sp, #44	; 0x2c
    96e0:	e3a04000 	mov	r4, #0
    96e4:	e3a03004 	mov	r3, #4
    96e8:	e98d0018 	stmib	sp, {r3, r4}
    96ec:	e58d4018 	str	r4, [sp, #24]
    96f0:	e3a03008 	mov	r3, #8
    96f4:	e58d3000 	str	r3, [sp]
    96f8:	e3a02002 	mov	r2, #2
    96fc:	e3402003 	movt	r2, #3
    9700:	e1a05000 	mov	r5, r0
    9704:	e58d4014 	str	r4, [sp, #20]
    9708:	e28d0014 	add	r0, sp, #20
    970c:	e58d401c 	str	r4, [sp, #28]
    9710:	e3a01005 	mov	r1, #5
    9714:	e58d4020 	str	r4, [sp, #32]
    9718:	e58d4024 	str	r4, [sp, #36]	; 0x24
    971c:	ebffffa3 	bl	95b0 <mailbox_tag_message.constprop.6>
    9720:	e2506000 	subs	r6, r0, #0
    9724:	0a000006 	beq	9744 <miniuart_init+0x6c>
    9728:	e1a03185 	lsl	r3, r5, #3
    972c:	e59d5024 	ldr	r5, [sp, #36]	; 0x24
    9730:	e735f315 	udiv	r5, r5, r3
    9734:	e2455001 	sub	r5, r5, #1
    9738:	e3550801 	cmp	r5, #65536	; 0x10000
    973c:	21a06004 	movcs	r6, r4
    9740:	3a000002 	bcc	9750 <miniuart_init+0x78>
    9744:	e1a00006 	mov	r0, r6
    9748:	e28dd02c 	add	sp, sp, #44	; 0x2c
    974c:	e8bd80f0 	pop	{r4, r5, r6, r7, pc}
    9750:	e30f7584 	movw	r7, #62852	; 0xf584
    9754:	e3050004 	movw	r0, #20484	; 0x5004
    9758:	e3407000 	movt	r7, #0
    975c:	e3a01001 	mov	r1, #1
    9760:	e3400021 	movt	r0, #33	; 0x21
    9764:	e6ff5075 	uxth	r5, r5
    9768:	e5973000 	ldr	r3, [r7]
    976c:	e0830000 	add	r0, r3, r0
    9770:	ebfffb81 	bl	857c <PUT32>
    9774:	e5972000 	ldr	r2, [r7]
    9778:	e1a00006 	mov	r0, r6
    977c:	e2823985 	add	r3, r2, #2179072	; 0x214000
    9780:	e2822602 	add	r2, r2, #2097152	; 0x200000
    9784:	e2833d41 	add	r3, r3, #4160	; 0x1040
    9788:	e5931020 	ldr	r1, [r3, #32]
    978c:	e7c01014 	bfi	r1, r4, #0, #1
    9790:	e5831020 	str	r1, [r3, #32]
    9794:	e5931020 	ldr	r1, [r3, #32]
    9798:	e7c11094 	bfi	r1, r4, #1, #1
    979c:	e5831020 	str	r1, [r3, #32]
    97a0:	e593100c 	ldr	r1, [r3, #12]
    97a4:	e3811001 	orr	r1, r1, #1
    97a8:	e583100c 	str	r1, [r3, #12]
    97ac:	e5931010 	ldr	r1, [r3, #16]
    97b0:	e7c11094 	bfi	r1, r4, #1, #1
    97b4:	e5831010 	str	r1, [r3, #16]
    97b8:	e5931008 	ldr	r1, [r3, #8]
    97bc:	e3811002 	orr	r1, r1, #2
    97c0:	e5831008 	str	r1, [r3, #8]
    97c4:	e5931008 	ldr	r1, [r3, #8]
    97c8:	e3811004 	orr	r1, r1, #4
    97cc:	e5831008 	str	r1, [r3, #8]
    97d0:	e5931028 	ldr	r1, [r3, #40]	; 0x28
    97d4:	e7cf1015 	bfi	r1, r5, #0, #16
    97d8:	e5831028 	str	r1, [r3, #40]	; 0x28
    97dc:	e5921004 	ldr	r1, [r2, #4]
    97e0:	e3c11a07 	bic	r1, r1, #28672	; 0x7000
    97e4:	e3811a02 	orr	r1, r1, #8192	; 0x2000
    97e8:	e5821004 	str	r1, [r2, #4]
    97ec:	e5921004 	ldr	r1, [r2, #4]
    97f0:	e3c1190e 	bic	r1, r1, #229376	; 0x38000
    97f4:	e3811801 	orr	r1, r1, #65536	; 0x10000
    97f8:	e5821004 	str	r1, [r2, #4]
    97fc:	e5932020 	ldr	r2, [r3, #32]
    9800:	e3822001 	orr	r2, r2, #1
    9804:	e5832020 	str	r2, [r3, #32]
    9808:	e5932020 	ldr	r2, [r3, #32]
    980c:	e3822002 	orr	r2, r2, #2
    9810:	e5832020 	str	r2, [r3, #32]
    9814:	e28dd02c 	add	sp, sp, #44	; 0x2c
    9818:	e8bd80f0 	pop	{r4, r5, r6, r7, pc}

0000981c <pl011_uart_init>:
    981c:	e92d40f0 	push	{r4, r5, r6, r7, lr}
    9820:	e30f7584 	movw	r7, #62852	; 0xf584
    9824:	e3407000 	movt	r7, #0
    9828:	e24dd02c 	sub	sp, sp, #44	; 0x2c
    982c:	e3a04000 	mov	r4, #0
    9830:	e3a05c09 	mov	r5, #2304	; 0x900
    9834:	e5973000 	ldr	r3, [r7]
    9838:	e3a0c008 	mov	ip, #8
    983c:	e58d4014 	str	r4, [sp, #20]
    9840:	e3a0e002 	mov	lr, #2
    9844:	e58d4018 	str	r4, [sp, #24]
    9848:	e2833602 	add	r3, r3, #2097152	; 0x200000
    984c:	e58d401c 	str	r4, [sp, #28]
    9850:	e2832a01 	add	r2, r3, #4096	; 0x1000
    9854:	e58d4020 	str	r4, [sp, #32]
    9858:	e1a06000 	mov	r6, r0
    985c:	e5824030 	str	r4, [r2, #48]	; 0x30
    9860:	e28d0014 	add	r0, sp, #20
    9864:	e58d4024 	str	r4, [sp, #36]	; 0x24
    9868:	e5932004 	ldr	r2, [r3, #4]
    986c:	e340503d 	movt	r5, #61	; 0x3d
    9870:	e3c22a07 	bic	r2, r2, #28672	; 0x7000
    9874:	e3822901 	orr	r2, r2, #16384	; 0x4000
    9878:	e5832004 	str	r2, [r3, #4]
    987c:	e3082002 	movw	r2, #32770	; 0x8002
    9880:	e5931004 	ldr	r1, [r3, #4]
    9884:	e3402003 	movt	r2, #3
    9888:	e3c1190e 	bic	r1, r1, #229376	; 0x38000
    988c:	e3811802 	orr	r1, r1, #131072	; 0x20000
    9890:	e5831004 	str	r1, [r3, #4]
    9894:	e1a0300c 	mov	r3, ip
    9898:	e58d5008 	str	r5, [sp, #8]
    989c:	e3a01005 	mov	r1, #5
    98a0:	e58de004 	str	lr, [sp, #4]
    98a4:	e58dc000 	str	ip, [sp]
    98a8:	ebffff40 	bl	95b0 <mailbox_tag_message.constprop.6>
    98ac:	e3500000 	cmp	r0, #0
    98b0:	0a000028 	beq	9958 <pl011_uart_init+0x13c>
    98b4:	e1a03206 	lsl	r3, r6, #4
    98b8:	e3e0200f 	mvn	r2, #15
    98bc:	e0020692 	mul	r2, r2, r6
    98c0:	e735f315 	udiv	r5, r5, r3
    98c4:	e0020295 	mul	r2, r5, r2
    98c8:	e5973000 	ldr	r3, [r7]
    98cc:	e6ff5075 	uxth	r5, r5
    98d0:	e1a010a6 	lsr	r1, r6, #1
    98d4:	e282283d 	add	r2, r2, #3997696	; 0x3d0000
    98d8:	e2822c09 	add	r2, r2, #2304	; 0x900
    98dc:	e2833602 	add	r3, r3, #2097152	; 0x200000
    98e0:	e2833a01 	add	r3, r3, #4096	; 0x1000
    98e4:	e0812102 	add	r2, r1, r2, lsl #2
    98e8:	e5931024 	ldr	r1, [r3, #36]	; 0x24
    98ec:	e736f612 	udiv	r6, r2, r6
    98f0:	e7cf1015 	bfi	r1, r5, #0, #16
    98f4:	e5831024 	str	r1, [r3, #36]	; 0x24
    98f8:	e5932028 	ldr	r2, [r3, #40]	; 0x28
    98fc:	e7c52016 	bfi	r2, r6, #0, #6
    9900:	e5832028 	str	r2, [r3, #40]	; 0x28
    9904:	e5d3202c 	ldrb	r2, [r3, #44]	; 0x2c
    9908:	e3822060 	orr	r2, r2, #96	; 0x60
    990c:	e5c3202c 	strb	r2, [r3, #44]	; 0x2c
    9910:	e593202c 	ldr	r2, [r3, #44]	; 0x2c
    9914:	e7c12094 	bfi	r2, r4, #1, #1
    9918:	e583202c 	str	r2, [r3, #44]	; 0x2c
    991c:	e593202c 	ldr	r2, [r3, #44]	; 0x2c
    9920:	e7c32194 	bfi	r2, r4, #3, #1
    9924:	e583202c 	str	r2, [r3, #44]	; 0x2c
    9928:	e593202c 	ldr	r2, [r3, #44]	; 0x2c
    992c:	e7c42214 	bfi	r2, r4, #4, #1
    9930:	e583202c 	str	r2, [r3, #44]	; 0x2c
    9934:	e5932030 	ldr	r2, [r3, #48]	; 0x30
    9938:	e3822001 	orr	r2, r2, #1
    993c:	e5832030 	str	r2, [r3, #48]	; 0x30
    9940:	e5932030 	ldr	r2, [r3, #48]	; 0x30
    9944:	e3822c02 	orr	r2, r2, #512	; 0x200
    9948:	e5832030 	str	r2, [r3, #48]	; 0x30
    994c:	e5932030 	ldr	r2, [r3, #48]	; 0x30
    9950:	e3822c01 	orr	r2, r2, #256	; 0x100
    9954:	e5832030 	str	r2, [r3, #48]	; 0x30
    9958:	e28dd02c 	add	sp, sp, #44	; 0x2c
    995c:	e8bd80f0 	pop	{r4, r5, r6, r7, pc}

00009960 <ClearTimerIrq>:
    9960:	e30f3584 	movw	r3, #62852	; 0xf584
    9964:	e3a02001 	mov	r2, #1
    9968:	e3403000 	movt	r3, #0
    996c:	e5933000 	ldr	r3, [r3]
    9970:	e2833b2d 	add	r3, r3, #46080	; 0xb400
    9974:	e583200c 	str	r2, [r3, #12]
    9978:	e12fff1e 	bx	lr

0000997c <TimerIrqSetup>:
    997c:	e92d4070 	push	{r4, r5, r6, lr}
    9980:	e30f6584 	movw	r6, #62852	; 0xf584
    9984:	e3406000 	movt	r6, #0
    9988:	e24dd028 	sub	sp, sp, #40	; 0x28
    998c:	e3a04000 	mov	r4, #0
    9990:	e3a0c008 	mov	ip, #8
    9994:	e5963000 	ldr	r3, [r6]
    9998:	e3a0e004 	mov	lr, #4
    999c:	e58d4018 	str	r4, [sp, #24]
    99a0:	e3a02002 	mov	r2, #2
    99a4:	e58d4014 	str	r4, [sp, #20]
    99a8:	e2833b2d 	add	r3, r3, #46080	; 0xb400
    99ac:	e58d401c 	str	r4, [sp, #28]
    99b0:	e1a05000 	mov	r5, r0
    99b4:	e58d4020 	str	r4, [sp, #32]
    99b8:	e28d0014 	add	r0, sp, #20
    99bc:	e58d4024 	str	r4, [sp, #36]	; 0x24
    99c0:	e5931008 	ldr	r1, [r3, #8]
    99c4:	e3402003 	movt	r2, #3
    99c8:	e7c71394 	bfi	r1, r4, #7, #1
    99cc:	e5831008 	str	r1, [r3, #8]
    99d0:	e1a0300c 	mov	r3, ip
    99d4:	e58d4008 	str	r4, [sp, #8]
    99d8:	e3a01005 	mov	r1, #5
    99dc:	e58de004 	str	lr, [sp, #4]
    99e0:	e58dc000 	str	ip, [sp]
    99e4:	ebfffef1 	bl	95b0 <mailbox_tag_message.constprop.6>
    99e8:	e3500000 	cmp	r0, #0
    99ec:	0a000012 	beq	9a3c <TimerIrqSetup+0xc0>
    99f0:	e59d3024 	ldr	r3, [sp, #36]	; 0x24
    99f4:	e30c1a6b 	movw	r1, #51819	; 0xca6b
    99f8:	e3461b5f 	movt	r1, #27487	; 0x6b5f
    99fc:	e308251f 	movw	r2, #34079	; 0x851f
    9a00:	e0831391 	umull	r1, r3, r1, r3
    9a04:	e34521eb 	movt	r2, #20971	; 0x51eb
    9a08:	e1a03a23 	lsr	r3, r3, #20
    9a0c:	e0030395 	mul	r3, r5, r3
    9a10:	e0832392 	umull	r2, r3, r2, r3
    9a14:	e5962000 	ldr	r2, [r6]
    9a18:	e1a032a3 	lsr	r3, r3, #5
    9a1c:	e1530004 	cmp	r3, r4
    9a20:	e58d3024 	str	r3, [sp, #36]	; 0x24
    9a24:	01a00003 	moveq	r0, r3
    9a28:	02823b2d 	addeq	r3, r2, #46080	; 0xb400
    9a2c:	1a000004 	bne	9a44 <TimerIrqSetup+0xc8>
    9a30:	e5932008 	ldr	r2, [r3, #8]
    9a34:	e3822080 	orr	r2, r2, #128	; 0x80
    9a38:	e5832008 	str	r2, [r3, #8]
    9a3c:	e28dd028 	add	sp, sp, #40	; 0x28
    9a40:	e8bd8070 	pop	{r4, r5, r6, pc}
    9a44:	e282ccb2 	add	ip, r2, #45568	; 0xb200
    9a48:	e2822b2d 	add	r2, r2, #46080	; 0xb400
    9a4c:	e59c1018 	ldr	r1, [ip, #24]
    9a50:	e3811001 	orr	r1, r1, #1
    9a54:	e58c1018 	str	r1, [ip, #24]
    9a58:	e5823000 	str	r3, [r2]
    9a5c:	e5963000 	ldr	r3, [r6]
    9a60:	e2833b2d 	add	r3, r3, #46080	; 0xb400
    9a64:	e5932008 	ldr	r2, [r3, #8]
    9a68:	e3822002 	orr	r2, r2, #2
    9a6c:	e5832008 	str	r2, [r3, #8]
    9a70:	e5d32008 	ldrb	r2, [r3, #8]
    9a74:	e7c32114 	bfi	r2, r4, #2, #2
    9a78:	e5c32008 	strb	r2, [r3, #8]
    9a7c:	e5932008 	ldr	r2, [r3, #8]
    9a80:	e3822020 	orr	r2, r2, #32
    9a84:	e5832008 	str	r2, [r3, #8]
    9a88:	eaffffe8 	b	9a30 <TimerIrqSetup+0xb4>

00009a8c <console_uart_init>:
    9a8c:	e92d4030 	push	{r4, r5, lr}
    9a90:	e30141c0 	movw	r4, #4544	; 0x11c0
    9a94:	e3404002 	movt	r4, #2
    9a98:	e24dd01c 	sub	sp, sp, #28
    9a9c:	e1a05000 	mov	r5, r0
    9aa0:	e5943000 	ldr	r3, [r4]
    9aa4:	e3530000 	cmp	r3, #0
    9aa8:	0a000004 	beq	9ac0 <console_uart_init+0x34>
    9aac:	e5845010 	str	r5, [r4, #16]
    9ab0:	e1a00005 	mov	r0, r5
    9ab4:	e12fff33 	blx	r3
    9ab8:	e28dd01c 	add	sp, sp, #28
    9abc:	e8bd8030 	pop	{r4, r5, pc}
    9ac0:	e58d3004 	str	r3, [sp, #4]
    9ac4:	e3a02002 	mov	r2, #2
    9ac8:	e3402001 	movt	r2, #1
    9acc:	e3a03004 	mov	r3, #4
    9ad0:	e58d3000 	str	r3, [sp]
    9ad4:	e1a01003 	mov	r1, r3
    9ad8:	e28d0008 	add	r0, sp, #8
    9adc:	ebfffde8 	bl	9284 <mailbox_tag_message.constprop.7>
    9ae0:	e3500000 	cmp	r0, #0
    9ae4:	05943000 	ldreq	r3, [r4]
    9ae8:	0affffef 	beq	9aac <console_uart_init+0x20>
    9aec:	e59d3014 	ldr	r3, [sp, #20]
    9af0:	e353000d 	cmp	r3, #13
    9af4:	979ff103 	ldrls	pc, [pc, r3, lsl #2]
    9af8:	ea000027 	b	9b9c <console_uart_init+0x110>
    9afc:	00009b68 	.word	0x00009b68
    9b00:	00009b68 	.word	0x00009b68
    9b04:	00009b68 	.word	0x00009b68
    9b08:	00009b68 	.word	0x00009b68
    9b0c:	00009b34 	.word	0x00009b34
    9b10:	00009b34 	.word	0x00009b34
    9b14:	00009b34 	.word	0x00009b34
    9b18:	00009b9c 	.word	0x00009b9c
    9b1c:	00009b34 	.word	0x00009b34
    9b20:	00009b34 	.word	0x00009b34
    9b24:	00009b9c 	.word	0x00009b9c
    9b28:	00009b9c 	.word	0x00009b9c
    9b2c:	00009b68 	.word	0x00009b68
    9b30:	00009b34 	.word	0x00009b34
    9b34:	e309281c 	movw	r2, #38940	; 0x981c
    9b38:	e309c1d8 	movw	ip, #37336	; 0x91d8
    9b3c:	e3402000 	movt	r2, #0
    9b40:	e3090204 	movw	r0, #37380	; 0x9204
    9b44:	e340c000 	movt	ip, #0
    9b48:	e3091234 	movw	r1, #37428	; 0x9234
    9b4c:	e3400000 	movt	r0, #0
    9b50:	e1a03002 	mov	r3, r2
    9b54:	e3401000 	movt	r1, #0
    9b58:	e8841004 	stm	r4, {r2, ip}
    9b5c:	e5840008 	str	r0, [r4, #8]
    9b60:	e584100c 	str	r1, [r4, #12]
    9b64:	eaffffd0 	b	9aac <console_uart_init+0x20>
    9b68:	e30926d8 	movw	r2, #38616	; 0x96d8
    9b6c:	e309c12c 	movw	ip, #37164	; 0x912c
    9b70:	e3402000 	movt	r2, #0
    9b74:	e3090158 	movw	r0, #37208	; 0x9158
    9b78:	e340c000 	movt	ip, #0
    9b7c:	e3091188 	movw	r1, #37256	; 0x9188
    9b80:	e3400000 	movt	r0, #0
    9b84:	e1a03002 	mov	r3, r2
    9b88:	e3401000 	movt	r1, #0
    9b8c:	e8841004 	stm	r4, {r2, ip}
    9b90:	e5840008 	str	r0, [r4, #8]
    9b94:	e584100c 	str	r1, [r4, #12]
    9b98:	eaffffc3 	b	9aac <console_uart_init+0x20>
    9b9c:	e30926d8 	movw	r2, #38616	; 0x96d8
    9ba0:	e309c12c 	movw	ip, #37164	; 0x912c
    9ba4:	e3402000 	movt	r2, #0
    9ba8:	e3090158 	movw	r0, #37208	; 0x9158
    9bac:	e340c000 	movt	ip, #0
    9bb0:	e1a03002 	mov	r3, r2
    9bb4:	e3400000 	movt	r0, #0
    9bb8:	e3091188 	movw	r1, #37256	; 0x9188
    9bbc:	eafffff1 	b	9b88 <console_uart_init+0xfc>

00009bc0 <set_Activity_LED>:
    9bc0:	e92d40f0 	push	{r4, r5, r6, r7, lr}
    9bc4:	e30141c0 	movw	r4, #4544	; 0x11c0
    9bc8:	e3404002 	movt	r4, #2
    9bcc:	e24dd024 	sub	sp, sp, #36	; 0x24
    9bd0:	e1a06000 	mov	r6, r0
    9bd4:	e5d45014 	ldrb	r5, [r4, #20]
    9bd8:	e3550000 	cmp	r5, #0
    9bdc:	0a00000a 	beq	9c0c <set_Activity_LED+0x4c>
    9be0:	e5d45015 	ldrb	r5, [r4, #21]
    9be4:	e30f35a8 	movw	r3, #62888	; 0xf5a8
    9be8:	e3403000 	movt	r3, #0
    9bec:	e5932000 	ldr	r2, [r3]
    9bf0:	e3550000 	cmp	r5, #0
    9bf4:	1a00002a 	bne	9ca4 <set_Activity_LED+0xe4>
    9bf8:	e3520035 	cmp	r2, #53	; 0x35
    9bfc:	83a00001 	movhi	r0, #1
    9c00:	9a000018 	bls	9c68 <set_Activity_LED+0xa8>
    9c04:	e28dd024 	add	sp, sp, #36	; 0x24
    9c08:	e8bd80f0 	pop	{r4, r5, r6, r7, pc}
    9c0c:	e58d5004 	str	r5, [sp, #4]
    9c10:	e3a03004 	mov	r3, #4
    9c14:	e58d3000 	str	r3, [sp]
    9c18:	e3a02002 	mov	r2, #2
    9c1c:	e3402001 	movt	r2, #1
    9c20:	e1a01003 	mov	r1, r3
    9c24:	e3a07001 	mov	r7, #1
    9c28:	e28d0010 	add	r0, sp, #16
    9c2c:	e5c47014 	strb	r7, [r4, #20]
    9c30:	ebfffd93 	bl	9284 <mailbox_tag_message.constprop.7>
    9c34:	e3500000 	cmp	r0, #0
    9c38:	0afffff1 	beq	9c04 <set_Activity_LED+0x44>
    9c3c:	e59d201c 	ldr	r2, [sp, #28]
    9c40:	e3c234ff 	bic	r3, r2, #-16777216	; 0xff000000
    9c44:	e58d301c 	str	r3, [sp, #28]
    9c48:	e2431002 	sub	r1, r3, #2
    9c4c:	e351000d 	cmp	r1, #13
    9c50:	8a00001e 	bhi	9cd0 <set_Activity_LED+0x110>
    9c54:	e5c45015 	strb	r5, [r4, #21]
    9c58:	e30f35a8 	movw	r3, #62888	; 0xf5a8
    9c5c:	e3403000 	movt	r3, #0
    9c60:	e3a02010 	mov	r2, #16
    9c64:	e5832000 	str	r2, [r3]
    9c68:	e202301f 	and	r3, r2, #31
    9c6c:	e3a01001 	mov	r1, #1
    9c70:	e3560000 	cmp	r6, #0
    9c74:	e3a00001 	mov	r0, #1
    9c78:	e1a01311 	lsl	r1, r1, r3
    9c7c:	e30f3584 	movw	r3, #62852	; 0xf584
    9c80:	e3403000 	movt	r3, #0
    9c84:	e1a022a2 	lsr	r2, r2, #5
    9c88:	e5933000 	ldr	r3, [r3]
    9c8c:	e2833602 	add	r3, r3, #2097152	; 0x200000
    9c90:	1283301c 	addne	r3, r3, #28
    9c94:	02833028 	addeq	r3, r3, #40	; 0x28
    9c98:	e7831102 	str	r1, [r3, r2, lsl #2]
    9c9c:	e28dd024 	add	sp, sp, #36	; 0x24
    9ca0:	e8bd80f0 	pop	{r4, r5, r6, r7, pc}
    9ca4:	e58d2004 	str	r2, [sp, #4]
    9ca8:	e3a03008 	mov	r3, #8
    9cac:	e58d6008 	str	r6, [sp, #8]
    9cb0:	e3082041 	movw	r2, #32833	; 0x8041
    9cb4:	e58d3000 	str	r3, [sp]
    9cb8:	e3a01005 	mov	r1, #5
    9cbc:	e3402003 	movt	r2, #3
    9cc0:	e3a00000 	mov	r0, #0
    9cc4:	ebfffdfb 	bl	94b8 <mailbox_tag_message.constprop.5>
    9cc8:	e28dd024 	add	sp, sp, #36	; 0x24
    9ccc:	e8bd80f0 	pop	{r4, r5, r6, r7, pc}
    9cd0:	e3021081 	movw	r1, #8321	; 0x2081
    9cd4:	e34010a0 	movt	r1, #160	; 0xa0
    9cd8:	e1530001 	cmp	r3, r1
    9cdc:	9a000016 	bls	9d3c <set_Activity_LED+0x17c>
    9ce0:	e3c224ff 	bic	r2, r2, #-16777216	; 0xff000000
    9ce4:	e3020082 	movw	r0, #8322	; 0x2082
    9ce8:	e3c22802 	bic	r2, r2, #131072	; 0x20000
    9cec:	e30210a0 	movw	r1, #8352	; 0x20a0
    9cf0:	e34000a0 	movt	r0, #160	; 0xa0
    9cf4:	e3025082 	movw	r5, #8322	; 0x2082
    9cf8:	e34010a0 	movt	r1, #160	; 0xa0
    9cfc:	e34050a3 	movt	r5, #163	; 0xa3
    9d00:	e1530001 	cmp	r3, r1
    9d04:	11520000 	cmpne	r2, r0
    9d08:	03a02001 	moveq	r2, #1
    9d0c:	13a02000 	movne	r2, #0
    9d10:	e1530005 	cmp	r3, r5
    9d14:	11a05002 	movne	r5, r2
    9d18:	03825001 	orreq	r5, r2, #1
    9d1c:	e3550000 	cmp	r5, #0
    9d20:	1a00000b 	bne	9d54 <set_Activity_LED+0x194>
    9d24:	e5c45015 	strb	r5, [r4, #21]
    9d28:	e30f35a8 	movw	r3, #62888	; 0xf5a8
    9d2c:	e3403000 	movt	r3, #0
    9d30:	e3a0201d 	mov	r2, #29
    9d34:	e5832000 	str	r2, [r3]
    9d38:	eaffffca 	b	9c68 <set_Activity_LED+0xa8>
    9d3c:	e5c45015 	strb	r5, [r4, #21]
    9d40:	e30f35a8 	movw	r3, #62888	; 0xf5a8
    9d44:	e3403000 	movt	r3, #0
    9d48:	e3a0202f 	mov	r2, #47	; 0x2f
    9d4c:	e5832000 	str	r2, [r3]
    9d50:	eaffffc4 	b	9c68 <set_Activity_LED+0xa8>
    9d54:	e5c47015 	strb	r7, [r4, #21]
    9d58:	e30f35a8 	movw	r3, #62888	; 0xf5a8
    9d5c:	e3403000 	movt	r3, #0
    9d60:	e3a02082 	mov	r2, #130	; 0x82
    9d64:	e5832000 	str	r2, [r3]
    9d68:	eaffffa0 	b	9bf0 <set_Activity_LED+0x30>

00009d6c <ARM_setmaxspeed>:
    9d6c:	e92d4070 	push	{r4, r5, r6, lr}
    9d70:	e24dd028 	sub	sp, sp, #40	; 0x28
    9d74:	e3a0c000 	mov	ip, #0
    9d78:	e3a04008 	mov	r4, #8
    9d7c:	e58dc018 	str	ip, [sp, #24]
    9d80:	e3a05003 	mov	r5, #3
    9d84:	e58dc014 	str	ip, [sp, #20]
    9d88:	e3a02004 	mov	r2, #4
    9d8c:	e88d1030 	stm	sp, {r4, r5, ip}
    9d90:	e3402003 	movt	r2, #3
    9d94:	e1a06000 	mov	r6, r0
    9d98:	e58dc01c 	str	ip, [sp, #28]
    9d9c:	e28d0014 	add	r0, sp, #20
    9da0:	e58dc020 	str	ip, [sp, #32]
    9da4:	e1a03004 	mov	r3, r4
    9da8:	e58dc024 	str	ip, [sp, #36]	; 0x24
    9dac:	e3a01005 	mov	r1, #5
    9db0:	ebfffdfe 	bl	95b0 <mailbox_tag_message.constprop.6>
    9db4:	e3500000 	cmp	r0, #0
    9db8:	1a000003 	bne	9dcc <ARM_setmaxspeed+0x60>
    9dbc:	e3a04000 	mov	r4, #0
    9dc0:	e1a00004 	mov	r0, r4
    9dc4:	e28dd028 	add	sp, sp, #40	; 0x28
    9dc8:	e8bd8070 	pop	{r4, r5, r6, pc}
    9dcc:	e59d1024 	ldr	r1, [sp, #36]	; 0x24
    9dd0:	e3082002 	movw	r2, #32770	; 0x8002
    9dd4:	e58d4000 	str	r4, [sp]
    9dd8:	e1a03004 	mov	r3, r4
    9ddc:	e58d1008 	str	r1, [sp, #8]
    9de0:	e28d0014 	add	r0, sp, #20
    9de4:	e58d5004 	str	r5, [sp, #4]
    9de8:	e3a01005 	mov	r1, #5
    9dec:	e3402003 	movt	r2, #3
    9df0:	ebfffdee 	bl	95b0 <mailbox_tag_message.constprop.6>
    9df4:	e2504000 	subs	r4, r0, #0
    9df8:	0affffef 	beq	9dbc <ARM_setmaxspeed+0x50>
    9dfc:	e30131c0 	movw	r3, #4544	; 0x11c0
    9e00:	e3403002 	movt	r3, #2
    9e04:	e5930010 	ldr	r0, [r3, #16]
    9e08:	e3500000 	cmp	r0, #0
    9e0c:	1a000008 	bne	9e34 <ARM_setmaxspeed+0xc8>
    9e10:	e3560000 	cmp	r6, #0
    9e14:	0affffe9 	beq	9dc0 <ARM_setmaxspeed+0x54>
    9e18:	e59d1024 	ldr	r1, [sp, #36]	; 0x24
    9e1c:	e30f03e0 	movw	r0, #62432	; 0xf3e0
    9e20:	e3400000 	movt	r0, #0
    9e24:	e12fff36 	blx	r6
    9e28:	e1a00004 	mov	r0, r4
    9e2c:	e28dd028 	add	sp, sp, #40	; 0x28
    9e30:	e8bd8070 	pop	{r4, r5, r6, pc}
    9e34:	ebffff14 	bl	9a8c <console_uart_init>
    9e38:	eafffff4 	b	9e10 <ARM_setmaxspeed+0xa4>

00009e3c <displaySmartStart>:
    9e3c:	e92d40f0 	push	{r4, r5, r6, r7, lr}
    9e40:	e2504000 	subs	r4, r0, #0
    9e44:	e24dd01c 	sub	sp, sp, #28
    9e48:	0a000022 	beq	9ed8 <displaySmartStart+0x9c>
    9e4c:	e30f359c 	movw	r3, #62876	; 0xf59c
    9e50:	e30f5598 	movw	r5, #62872	; 0xf598
    9e54:	e3403000 	movt	r3, #0
    9e58:	e30fe5a4 	movw	lr, #62884	; 0xf5a4
    9e5c:	e3405000 	movt	r5, #0
    9e60:	e30f0590 	movw	r0, #62864	; 0xf590
    9e64:	e5d3c000 	ldrb	ip, [r3]
    9e68:	e30f1404 	movw	r1, #62468	; 0xf404
    9e6c:	e1d370d3 	ldrsb	r7, [r3, #3]
    9e70:	e30f23fc 	movw	r2, #62460	; 0xf3fc
    9e74:	e340e000 	movt	lr, #0
    9e78:	e3400000 	movt	r0, #0
    9e7c:	e3570000 	cmp	r7, #0
    9e80:	e3401000 	movt	r1, #0
    9e84:	e7e0325c 	ubfx	r3, ip, #4, #1
    9e88:	e20cc00f 	and	ip, ip, #15
    9e8c:	e1d550b0 	ldrh	r5, [r5]
    9e90:	e2833001 	add	r3, r3, #1
    9e94:	e3402000 	movt	r2, #0
    9e98:	a1a02001 	movge	r2, r1
    9e9c:	e5906000 	ldr	r6, [r0]
    9ea0:	e30f040c 	movw	r0, #62476	; 0xf40c
    9ea4:	e58d2010 	str	r2, [sp, #16]
    9ea8:	e1de20b0 	ldrh	r2, [lr]
    9eac:	e1a03283 	lsl	r3, r3, #5
    9eb0:	e1a05225 	lsr	r5, r5, #4
    9eb4:	e5de1002 	ldrb	r1, [lr, #2]
    9eb8:	e3400000 	movt	r0, #0
    9ebc:	e58d3004 	str	r3, [sp, #4]
    9ec0:	e6ef3072 	uxtb	r3, r2
    9ec4:	e58dc000 	str	ip, [sp]
    9ec8:	e58d5008 	str	r5, [sp, #8]
    9ecc:	e1a02422 	lsr	r2, r2, #8
    9ed0:	e58d600c 	str	r6, [sp, #12]
    9ed4:	e12fff34 	blx	r4
    9ed8:	e28dd01c 	add	sp, sp, #28
    9edc:	e8bd80f0 	pop	{r4, r5, r6, r7, pc}

00009ee0 <SetDCBrushColor>:
    9ee0:	e59f3040 	ldr	r3, [pc, #64]	; 9f28 <SetDCBrushColor+0x48>
    9ee4:	e3500000 	cmp	r0, #0
    9ee8:	e7e4c1d1 	ubfx	ip, r1, #3, #5
    9eec:	11a03000 	movne	r3, r0
    9ef0:	e92d4010 	push	{r4, lr}
    9ef4:	e5d32035 	ldrb	r2, [r3, #53]	; 0x35
    9ef8:	e7e449d1 	ubfx	r4, r1, #19, #5
    9efc:	e7c72194 	bfi	r2, r4, #3, #5
    9f00:	e5c32035 	strb	r2, [r3, #53]	; 0x35
    9f04:	e1d323b4 	ldrh	r2, [r3, #52]	; 0x34
    9f08:	e7e5e551 	ubfx	lr, r1, #10, #6
    9f0c:	e7ca229e 	bfi	r2, lr, #5, #6
    9f10:	e1c323b4 	strh	r2, [r3, #52]	; 0x34
    9f14:	e7c4201c 	bfi	r2, ip, #0, #5
    9f18:	e593002c 	ldr	r0, [r3, #44]	; 0x2c
    9f1c:	e5c32034 	strb	r2, [r3, #52]	; 0x34
    9f20:	e583102c 	str	r1, [r3, #44]	; 0x2c
    9f24:	e8bd8010 	pop	{r4, pc}
    9f28:	000211d8 	.word	0x000211d8

00009f2c <LineTo>:
    9f2c:	e3500000 	cmp	r0, #0
    9f30:	e92d40f0 	push	{r4, r5, r6, r7, lr}
    9f34:	e24dd00c 	sub	sp, sp, #12
    9f38:	e59f40f4 	ldr	r4, [pc, #244]	; a034 <LineTo+0x108>
    9f3c:	11a04000 	movne	r4, r0
    9f40:	e5940000 	ldr	r0, [r4]
    9f44:	e3500000 	cmp	r0, #0
    9f48:	0a000018 	beq	9fb0 <LineTo+0x84>
    9f4c:	e5940018 	ldr	r0, [r4, #24]
    9f50:	e1a05001 	mov	r5, r1
    9f54:	e5941014 	ldr	r1, [r4, #20]
    9f58:	e1a06002 	mov	r6, r2
    9f5c:	e1510005 	cmp	r1, r5
    9f60:	da000014 	ble	9fb8 <LineTo+0x8c>
    9f64:	e1520000 	cmp	r2, r0
    9f68:	e0411005 	sub	r1, r1, r5
    9f6c:	a3e03000 	mvnge	r3, #0
    9f70:	ba000020 	blt	9ff8 <LineTo+0xcc>
    9f74:	e0460000 	sub	r0, r6, r0
    9f78:	e3510000 	cmp	r1, #0
    9f7c:	03a02001 	moveq	r2, #1
    9f80:	0a000015 	beq	9fdc <LineTo+0xb0>
    9f84:	e3500000 	cmp	r0, #0
    9f88:	1a000027 	bne	a02c <LineTo+0x100>
    9f8c:	e1d4c4b6 	ldrh	ip, [r4, #70]	; 0x46
    9f90:	e1a02003 	mov	r2, r3
    9f94:	e1d434b8 	ldrh	r3, [r4, #72]	; 0x48
    9f98:	e1a00004 	mov	r0, r4
    9f9c:	e18c3803 	orr	r3, ip, r3, lsl #16
    9fa0:	e12fff33 	blx	r3
    9fa4:	e5845014 	str	r5, [r4, #20]
    9fa8:	e3a00001 	mov	r0, #1
    9fac:	e5846018 	str	r6, [r4, #24]
    9fb0:	e28dd00c 	add	sp, sp, #12
    9fb4:	e8bd80f0 	pop	{r4, r5, r6, r7, pc}
    9fb8:	e1500002 	cmp	r0, r2
    9fbc:	e0451001 	sub	r1, r5, r1
    9fc0:	da000017 	ble	a024 <LineTo+0xf8>
    9fc4:	e0400002 	sub	r0, r0, r2
    9fc8:	e3510000 	cmp	r1, #0
    9fcc:	13a03001 	movne	r3, #1
    9fd0:	13e0c000 	mvnne	ip, #0
    9fd4:	1a00000a 	bne	a004 <LineTo+0xd8>
    9fd8:	e3e02000 	mvn	r2, #0
    9fdc:	e1d434b2 	ldrh	r3, [r4, #66]	; 0x42
    9fe0:	e1a01000 	mov	r1, r0
    9fe4:	e1d4c4b4 	ldrh	ip, [r4, #68]	; 0x44
    9fe8:	e1a00004 	mov	r0, r4
    9fec:	e183380c 	orr	r3, r3, ip, lsl #16
    9ff0:	e12fff33 	blx	r3
    9ff4:	eaffffea 	b	9fa4 <LineTo+0x78>
    9ff8:	e0400002 	sub	r0, r0, r2
    9ffc:	e3e03000 	mvn	r3, #0
    a000:	e1a0c003 	mov	ip, r3
    a004:	e1d474ba 	ldrh	r7, [r4, #74]	; 0x4a
    a008:	e1a02000 	mov	r2, r0
    a00c:	e1d4e4bc 	ldrh	lr, [r4, #76]	; 0x4c
    a010:	e1a00004 	mov	r0, r4
    a014:	e58dc000 	str	ip, [sp]
    a018:	e187780e 	orr	r7, r7, lr, lsl #16
    a01c:	e12fff37 	blx	r7
    a020:	eaffffdf 	b	9fa4 <LineTo+0x78>
    a024:	e3a03001 	mov	r3, #1
    a028:	eaffffd1 	b	9f74 <LineTo+0x48>
    a02c:	e3a0c001 	mov	ip, #1
    a030:	eafffff3 	b	a004 <LineTo+0xd8>
    a034:	000211d8 	.word	0x000211d8

0000a038 <Rectangle>:
    a038:	e92d4ff0 	push	{r4, r5, r6, r7, r8, r9, sl, fp, lr}
    a03c:	e24dd014 	sub	sp, sp, #20
    a040:	e59f81c0 	ldr	r8, [pc, #448]	; a208 <Rectangle+0x1d0>
    a044:	e3500000 	cmp	r0, #0
    a048:	e59d9038 	ldr	r9, [sp, #56]	; 0x38
    a04c:	11a0e000 	movne	lr, r0
    a050:	01a0e008 	moveq	lr, r8
    a054:	e1530001 	cmp	r3, r1
    a058:	c1590002 	cmpgt	r9, r2
    a05c:	c3a0c001 	movgt	ip, #1
    a060:	d3a0c000 	movle	ip, #0
    a064:	da00003e 	ble	a164 <Rectangle+0x12c>
    a068:	e59ec000 	ldr	ip, [lr]
    a06c:	e35c0000 	cmp	ip, #0
    a070:	0a00003b 	beq	a164 <Rectangle+0x12c>
    a074:	e59ec024 	ldr	ip, [lr, #36]	; 0x24
    a078:	e1a04000 	mov	r4, r0
    a07c:	e59e002c 	ldr	r0, [lr, #44]	; 0x2c
    a080:	e15c0000 	cmp	ip, r0
    a084:	0a000057 	beq	a1e8 <Rectangle+0x1b0>
    a088:	e59ea000 	ldr	sl, [lr]
    a08c:	e1a05003 	mov	r5, r3
    a090:	e045b001 	sub	fp, r5, r1
    a094:	e1a06001 	mov	r6, r1
    a098:	e35a0000 	cmp	sl, #0
    a09c:	e1a07002 	mov	r7, r2
    a0a0:	058da00c 	streq	sl, [sp, #12]
    a0a4:	e1a0800e 	mov	r8, lr
    a0a8:	159e3014 	ldrne	r3, [lr, #20]
    a0ac:	159ea018 	ldrne	sl, [lr, #24]
    a0b0:	158d300c 	strne	r3, [sp, #12]
    a0b4:	158e1014 	strne	r1, [lr, #20]
    a0b8:	158e2018 	strne	r2, [lr, #24]
    a0bc:	e35b0002 	cmp	fp, #2
    a0c0:	da000039 	ble	a1ac <Rectangle+0x174>
    a0c4:	e049b002 	sub	fp, r9, r2
    a0c8:	e35b0002 	cmp	fp, #2
    a0cc:	da000027 	ble	a170 <Rectangle+0x138>
    a0d0:	e1de34b0 	ldrh	r3, [lr, #64]	; 0x40
    a0d4:	e2455001 	sub	r5, r5, #1
    a0d8:	e1deb3be 	ldrh	fp, [lr, #62]	; 0x3e
    a0dc:	e2499001 	sub	r9, r9, #1
    a0e0:	e58d9000 	str	r9, [sp]
    a0e4:	e1a0000e 	mov	r0, lr
    a0e8:	e18bb803 	orr	fp, fp, r3, lsl #16
    a0ec:	e2822001 	add	r2, r2, #1
    a0f0:	e1a03005 	mov	r3, r5
    a0f4:	e2811001 	add	r1, r1, #1
    a0f8:	e12fff3b 	blx	fp
    a0fc:	e1a02007 	mov	r2, r7
    a100:	e1a01005 	mov	r1, r5
    a104:	e1a00004 	mov	r0, r4
    a108:	ebffff87 	bl	9f2c <LineTo>
    a10c:	e1a02009 	mov	r2, r9
    a110:	e1a01005 	mov	r1, r5
    a114:	e1a00004 	mov	r0, r4
    a118:	ebffff83 	bl	9f2c <LineTo>
    a11c:	e1a02009 	mov	r2, r9
    a120:	e1a01006 	mov	r1, r6
    a124:	e1a00004 	mov	r0, r4
    a128:	ebffff7f 	bl	9f2c <LineTo>
    a12c:	e1a02007 	mov	r2, r7
    a130:	e1a01006 	mov	r1, r6
    a134:	e1a00004 	mov	r0, r4
    a138:	ebffff7b 	bl	9f2c <LineTo>
    a13c:	e5983000 	ldr	r3, [r8]
    a140:	e3530000 	cmp	r3, #0
    a144:	03a00001 	moveq	r0, #1
    a148:	0a000006 	beq	a168 <Rectangle+0x130>
    a14c:	e59d300c 	ldr	r3, [sp, #12]
    a150:	e3a00001 	mov	r0, #1
    a154:	e588a018 	str	sl, [r8, #24]
    a158:	e5883014 	str	r3, [r8, #20]
    a15c:	e28dd014 	add	sp, sp, #20
    a160:	e8bd8ff0 	pop	{r4, r5, r6, r7, r8, r9, sl, fp, pc}
    a164:	e1a0000c 	mov	r0, ip
    a168:	e28dd014 	add	sp, sp, #20
    a16c:	e8bd8ff0 	pop	{r4, r5, r6, r7, r8, r9, sl, fp, pc}
    a170:	e2455001 	sub	r5, r5, #1
    a174:	e1a00004 	mov	r0, r4
    a178:	e1a01005 	mov	r1, r5
    a17c:	ebffff6a 	bl	9f2c <LineTo>
    a180:	e35b0002 	cmp	fp, #2
    a184:	1affffec 	bne	a13c <Rectangle+0x104>
    a188:	e5983000 	ldr	r3, [r8]
    a18c:	e2492001 	sub	r2, r9, #1
    a190:	e1a01005 	mov	r1, r5
    a194:	e1a00004 	mov	r0, r4
    a198:	e3530000 	cmp	r3, #0
    a19c:	15886014 	strne	r6, [r8, #20]
    a1a0:	15882018 	strne	r2, [r8, #24]
    a1a4:	ebffff60 	bl	9f2c <LineTo>
    a1a8:	eaffffe3 	b	a13c <Rectangle+0x104>
    a1ac:	e2499001 	sub	r9, r9, #1
    a1b0:	e1a00004 	mov	r0, r4
    a1b4:	e1a02009 	mov	r2, r9
    a1b8:	ebffff5b 	bl	9f2c <LineTo>
    a1bc:	e35b0002 	cmp	fp, #2
    a1c0:	1affffdd 	bne	a13c <Rectangle+0x104>
    a1c4:	e5983000 	ldr	r3, [r8]
    a1c8:	e1a02007 	mov	r2, r7
    a1cc:	e1a01005 	mov	r1, r5
    a1d0:	e1a00004 	mov	r0, r4
    a1d4:	e3530000 	cmp	r3, #0
    a1d8:	15885014 	strne	r5, [r8, #20]
    a1dc:	15889018 	strne	r9, [r8, #24]
    a1e0:	ebffff51 	bl	9f2c <LineTo>
    a1e4:	eaffffd4 	b	a13c <Rectangle+0x104>
    a1e8:	e1de43be 	ldrh	r4, [lr, #62]	; 0x3e
    a1ec:	e1a0000e 	mov	r0, lr
    a1f0:	e1dec4b0 	ldrh	ip, [lr, #64]	; 0x40
    a1f4:	e58d9000 	str	r9, [sp]
    a1f8:	e184480c 	orr	r4, r4, ip, lsl #16
    a1fc:	e12fff34 	blx	r4
    a200:	e3a00001 	mov	r0, #1
    a204:	eaffffd7 	b	a168 <Rectangle+0x130>
    a208:	000211d8 	.word	0x000211d8

0000a20c <PiConsole_Init>:
    a20c:	e3510000 	cmp	r1, #0
    a210:	13500000 	cmpne	r0, #0
    a214:	e92d47f0 	push	{r4, r5, r6, r7, r8, r9, sl, lr}
    a218:	e24dd0b8 	sub	sp, sp, #184	; 0xb8
    a21c:	e28d405c 	add	r4, sp, #92	; 0x5c
    a220:	e1a05002 	mov	r5, r2
    a224:	e1a08003 	mov	r8, r3
    a228:	e1a06000 	mov	r6, r0
    a22c:	e1a07001 	mov	r7, r1
    a230:	0a000075 	beq	a40c <PiConsole_Init+0x200>
    a234:	e3550000 	cmp	r5, #0
    a238:	1a00000a 	bne	a268 <PiConsole_Init+0x5c>
    a23c:	e58d5004 	str	r5, [sp, #4]
    a240:	e3a03004 	mov	r3, #4
    a244:	e58d3000 	str	r3, [sp]
    a248:	e3a02005 	mov	r2, #5
    a24c:	e3402004 	movt	r2, #4
    a250:	e1a01003 	mov	r1, r3
    a254:	e1a00004 	mov	r0, r4
    a258:	ebfffc09 	bl	9284 <mailbox_tag_message.constprop.7>
    a25c:	e3500000 	cmp	r0, #0
    a260:	0a000029 	beq	a30c <PiConsole_Init+0x100>
    a264:	e59d5068 	ldr	r5, [sp, #104]	; 0x68
    a268:	e58d701c 	str	r7, [sp, #28]
    a26c:	e3082005 	movw	r2, #32773	; 0x8005
    a270:	e3402004 	movt	r2, #4
    a274:	e3a09008 	mov	r9, #8
    a278:	e58d2020 	str	r2, [sp, #32]
    a27c:	e3083004 	movw	r3, #32772	; 0x8004
    a280:	e3403004 	movt	r3, #4
    a284:	e3a0e001 	mov	lr, #1
    a288:	e340e004 	movt	lr, #4
    a28c:	e1a0c009 	mov	ip, r9
    a290:	e58d300c 	str	r3, [sp, #12]
    a294:	e3a01004 	mov	r1, #4
    a298:	e3409004 	movt	r9, #4
    a29c:	e3082003 	movw	r2, #32771	; 0x8003
    a2a0:	e58d1028 	str	r1, [sp, #40]	; 0x28
    a2a4:	e1a00004 	mov	r0, r4
    a2a8:	e58d1024 	str	r1, [sp, #36]	; 0x24
    a2ac:	e3a04000 	mov	r4, #0
    a2b0:	e58de030 	str	lr, [sp, #48]	; 0x30
    a2b4:	e1a0300c 	mov	r3, ip
    a2b8:	e58d1048 	str	r1, [sp, #72]	; 0x48
    a2bc:	e3a0e010 	mov	lr, #16
    a2c0:	e58d1038 	str	r1, [sp, #56]	; 0x38
    a2c4:	e3a01017 	mov	r1, #23
    a2c8:	e58d6018 	str	r6, [sp, #24]
    a2cc:	e58d7008 	str	r7, [sp, #8]
    a2d0:	e58d6004 	str	r6, [sp, #4]
    a2d4:	e58dc014 	str	ip, [sp, #20]
    a2d8:	e58dc010 	str	ip, [sp, #16]
    a2dc:	e58dc000 	str	ip, [sp]
    a2e0:	e3402004 	movt	r2, #4
    a2e4:	e58d9044 	str	r9, [sp, #68]	; 0x44
    a2e8:	e58d502c 	str	r5, [sp, #44]	; 0x2c
    a2ec:	e58dc034 	str	ip, [sp, #52]	; 0x34
    a2f0:	e58d4050 	str	r4, [sp, #80]	; 0x50
    a2f4:	e58d404c 	str	r4, [sp, #76]	; 0x4c
    a2f8:	e58d4040 	str	r4, [sp, #64]	; 0x40
    a2fc:	e58de03c 	str	lr, [sp, #60]	; 0x3c
    a300:	ebfffc24 	bl	9398 <mailbox_tag_message.constprop.8>
    a304:	e2509000 	subs	r9, r0, #0
    a308:	1a000003 	bne	a31c <PiConsole_Init+0x110>
    a30c:	e3a09000 	mov	r9, #0
    a310:	e1a00009 	mov	r0, r9
    a314:	e28dd0b8 	add	sp, sp, #184	; 0xb8
    a318:	e8bd87f0 	pop	{r4, r5, r6, r7, r8, r9, sl, pc}
    a31c:	e59d00a0 	ldr	r0, [sp, #160]	; 0xa0
    a320:	ebfff887 	bl	8544 <GPUaddrToARMaddr>
    a324:	e59dc0b4 	ldr	ip, [sp, #180]	; 0xb4
    a328:	e30131c0 	movw	r3, #4544	; 0x11c0
    a32c:	e3403002 	movt	r3, #2
    a330:	e3e0e000 	mvn	lr, #0
    a334:	e3550018 	cmp	r5, #24
    a338:	e5d32049 	ldrb	r2, [r3, #73]	; 0x49
    a33c:	e5d3104b 	ldrb	r1, [r3, #75]	; 0x4b
    a340:	e5830018 	str	r0, [r3, #24]
    a344:	e38220f8 	orr	r2, r2, #248	; 0xf8
    a348:	e5c32049 	strb	r2, [r3, #73]	; 0x49
    a34c:	e5d3204d 	ldrb	r2, [r3, #77]	; 0x4d
    a350:	e7c71194 	bfi	r1, r4, #3, #5
    a354:	e7c72194 	bfi	r2, r4, #3, #5
    a358:	e5c3204d 	strb	r2, [r3, #77]	; 0x4d
    a35c:	e1d324b8 	ldrh	r2, [r3, #72]	; 0x48
    a360:	e1d304bc 	ldrh	r0, [r3, #76]	; 0x4c
    a364:	e5c3104b 	strb	r1, [r3, #75]	; 0x4b
    a368:	e3822e7e 	orr	r2, r2, #2016	; 0x7e0
    a36c:	e1d314ba 	ldrh	r1, [r3, #74]	; 0x4a
    a370:	e3800e7e 	orr	r0, r0, #2016	; 0x7e0
    a374:	e1c324b8 	strh	r2, [r3, #72]	; 0x48
    a378:	e6ef2072 	uxtb	r2, r2
    a37c:	e7ca1294 	bfi	r1, r4, #5, #6
    a380:	e382201f 	orr	r2, r2, #31
    a384:	e583e03c 	str	lr, [r3, #60]	; 0x3c
    a388:	e3a0ecff 	mov	lr, #65280	; 0xff00
    a38c:	e5c32048 	strb	r2, [r3, #72]	; 0x48
    a390:	e1a02000 	mov	r2, r0
    a394:	e1c314ba 	strh	r1, [r3, #74]	; 0x4a
    a398:	e34fef00 	movt	lr, #65280	; 0xff00
    a39c:	e7c41014 	bfi	r1, r4, #0, #5
    a3a0:	e7c42014 	bfi	r2, r4, #0, #5
    a3a4:	e1c304bc 	strh	r0, [r3, #76]	; 0x4c
    a3a8:	e5834040 	str	r4, [r3, #64]	; 0x40
    a3ac:	e583601c 	str	r6, [r3, #28]
    a3b0:	e5837020 	str	r7, [r3, #32]
    a3b4:	e5835024 	str	r5, [r3, #36]	; 0x24
    a3b8:	e5c3104a 	strb	r1, [r3, #74]	; 0x4a
    a3bc:	e583e044 	str	lr, [r3, #68]	; 0x44
    a3c0:	e583c028 	str	ip, [r3, #40]	; 0x28
    a3c4:	e5c3204c 	strb	r2, [r3, #76]	; 0x4c
    a3c8:	0a000048 	beq	a4f0 <PiConsole_Init+0x2e4>
    a3cc:	e3550020 	cmp	r5, #32
    a3d0:	0a000020 	beq	a458 <PiConsole_Init+0x24c>
    a3d4:	e3550010 	cmp	r5, #16
    a3d8:	0a00005b 	beq	a54c <PiConsole_Init+0x340>
    a3dc:	e3580000 	cmp	r8, #0
    a3e0:	0affffca 	beq	a310 <PiConsole_Init+0x104>
    a3e4:	e58dc000 	str	ip, [sp]
    a3e8:	e30f0454 	movw	r0, #62548	; 0xf454
    a3ec:	e3400000 	movt	r0, #0
    a3f0:	e1a03005 	mov	r3, r5
    a3f4:	e1a02007 	mov	r2, r7
    a3f8:	e1a01006 	mov	r1, r6
    a3fc:	e12fff38 	blx	r8
    a400:	e1a00009 	mov	r0, r9
    a404:	e28dd0b8 	add	sp, sp, #184	; 0xb8
    a408:	e8bd87f0 	pop	{r4, r5, r6, r7, r8, r9, sl, pc}
    a40c:	e3a03000 	mov	r3, #0
    a410:	e3a02003 	mov	r2, #3
    a414:	e58d3008 	str	r3, [sp, #8]
    a418:	e1a00004 	mov	r0, r4
    a41c:	e58d3004 	str	r3, [sp, #4]
    a420:	e3a01005 	mov	r1, #5
    a424:	e58d3000 	str	r3, [sp]
    a428:	e3a03008 	mov	r3, #8
    a42c:	e3402004 	movt	r2, #4
    a430:	ebfffc5e 	bl	95b0 <mailbox_tag_message.constprop.6>
    a434:	e3500000 	cmp	r0, #0
    a438:	0affffb3 	beq	a30c <PiConsole_Init+0x100>
    a43c:	e3560000 	cmp	r6, #0
    a440:	1a000002 	bne	a450 <PiConsole_Init+0x244>
    a444:	e59d6068 	ldr	r6, [sp, #104]	; 0x68
    a448:	e3570000 	cmp	r7, #0
    a44c:	1affff78 	bne	a234 <PiConsole_Init+0x28>
    a450:	e59d706c 	ldr	r7, [sp, #108]	; 0x6c
    a454:	eaffff76 	b	a234 <PiConsole_Init+0x28>
    a458:	e308edf4 	movw	lr, #36340	; 0x8df4
    a45c:	e308ae58 	movw	sl, #36440	; 0x8e58
    a460:	e340e000 	movt	lr, #0
    a464:	e3084ed0 	movw	r4, #36560	; 0x8ed0
    a468:	e1c3e5b6 	strh	lr, [r3, #86]	; 0x56
    a46c:	e3080f18 	movw	r0, #36632	; 0x8f18
    a470:	e1a0e82e 	lsr	lr, lr, #16
    a474:	e3081f94 	movw	r1, #36756	; 0x8f94
    a478:	e1c3e5b8 	strh	lr, [r3, #88]	; 0x58
    a47c:	e3092020 	movw	r2, #36896	; 0x9020
    a480:	e340a000 	movt	sl, #0
    a484:	e309e09c 	movw	lr, #37020	; 0x909c
    a488:	e3404000 	movt	r4, #0
    a48c:	e3400000 	movt	r0, #0
    a490:	e3401000 	movt	r1, #0
    a494:	e3402000 	movt	r2, #0
    a498:	e340e000 	movt	lr, #0
    a49c:	e1a0c12c 	lsr	ip, ip, #2
    a4a0:	e583c028 	str	ip, [r3, #40]	; 0x28
    a4a4:	e1c326ba 	strh	r2, [r3, #106]	; 0x6a
    a4a8:	e1a02822 	lsr	r2, r2, #16
    a4ac:	e1c3a5ba 	strh	sl, [r3, #90]	; 0x5a
    a4b0:	e1c345be 	strh	r4, [r3, #94]	; 0x5e
    a4b4:	e1a0a82a 	lsr	sl, sl, #16
    a4b8:	e1a04824 	lsr	r4, r4, #16
    a4bc:	e1c306b2 	strh	r0, [r3, #98]	; 0x62
    a4c0:	e1c316b6 	strh	r1, [r3, #102]	; 0x66
    a4c4:	e1a00820 	lsr	r0, r0, #16
    a4c8:	e1a01821 	lsr	r1, r1, #16
    a4cc:	e1c326bc 	strh	r2, [r3, #108]	; 0x6c
    a4d0:	e1a0282e 	lsr	r2, lr, #16
    a4d4:	e1c3a5bc 	strh	sl, [r3, #92]	; 0x5c
    a4d8:	e1c346b0 	strh	r4, [r3, #96]	; 0x60
    a4dc:	e1c306b4 	strh	r0, [r3, #100]	; 0x64
    a4e0:	e1c316b8 	strh	r1, [r3, #104]	; 0x68
    a4e4:	e1c3e6be 	strh	lr, [r3, #110]	; 0x6e
    a4e8:	e1c327b0 	strh	r2, [r3, #112]	; 0x70
    a4ec:	eaffffba 	b	a3dc <PiConsole_Init+0x1d0>
    a4f0:	e30a2aab 	movw	r2, #43691	; 0xaaab
    a4f4:	e308e9bc 	movw	lr, #35260	; 0x89bc
    a4f8:	e34a2aaa 	movt	r2, #43690	; 0xaaaa
    a4fc:	e308aa30 	movw	sl, #35376	; 0x8a30
    a500:	e340e000 	movt	lr, #0
    a504:	e3084ac4 	movw	r4, #35524	; 0x8ac4
    a508:	e08c2c92 	umull	r2, ip, r2, ip
    a50c:	e1c3e5b6 	strh	lr, [r3, #86]	; 0x56
    a510:	e3080b24 	movw	r0, #35620	; 0x8b24
    a514:	e1a0e82e 	lsr	lr, lr, #16
    a518:	e3081bd4 	movw	r1, #35796	; 0x8bd4
    a51c:	e1c3e5b8 	strh	lr, [r3, #88]	; 0x58
    a520:	e3082c7c 	movw	r2, #35964	; 0x8c7c
    a524:	e1a0c0ac 	lsr	ip, ip, #1
    a528:	e308ed2c 	movw	lr, #36140	; 0x8d2c
    a52c:	e340a000 	movt	sl, #0
    a530:	e3404000 	movt	r4, #0
    a534:	e3400000 	movt	r0, #0
    a538:	e3401000 	movt	r1, #0
    a53c:	e3402000 	movt	r2, #0
    a540:	e583c028 	str	ip, [r3, #40]	; 0x28
    a544:	e340e000 	movt	lr, #0
    a548:	eaffffd5 	b	a4a4 <PiConsole_Init+0x298>
    a54c:	e308e5c4 	movw	lr, #34244	; 0x85c4
    a550:	e308a634 	movw	sl, #34356	; 0x8634
    a554:	e340e000 	movt	lr, #0
    a558:	e30846c4 	movw	r4, #34500	; 0x86c4
    a55c:	e1c3e5b6 	strh	lr, [r3, #86]	; 0x56
    a560:	e3080720 	movw	r0, #34592	; 0x8720
    a564:	e1a0e82e 	lsr	lr, lr, #16
    a568:	e30817cc 	movw	r1, #34764	; 0x87cc
    a56c:	e1c3e5b8 	strh	lr, [r3, #88]	; 0x58
    a570:	e3082868 	movw	r2, #34920	; 0x8868
    a574:	e1a0c0ac 	lsr	ip, ip, #1
    a578:	e308e900 	movw	lr, #35072	; 0x8900
    a57c:	e340a000 	movt	sl, #0
    a580:	e3404000 	movt	r4, #0
    a584:	e3400000 	movt	r0, #0
    a588:	e3401000 	movt	r1, #0
    a58c:	e3402000 	movt	r2, #0
    a590:	e583c028 	str	ip, [r3, #40]	; 0x28
    a594:	e340e000 	movt	lr, #0
    a598:	eaffffc1 	b	a4a4 <PiConsole_Init+0x298>

0000a59c <GotoXY>:
    a59c:	e30131c0 	movw	r3, #4544	; 0x11c0
    a5a0:	e3403002 	movt	r3, #2
    a5a4:	e5830034 	str	r0, [r3, #52]	; 0x34
    a5a8:	e5831038 	str	r1, [r3, #56]	; 0x38
    a5ac:	e12fff1e 	bx	lr

0000a5b0 <WriteText>:
    a5b0:	e92d41f0 	push	{r4, r5, r6, r7, r8, lr}
    a5b4:	e30141c0 	movw	r4, #4544	; 0x11c0
    a5b8:	e3404002 	movt	r4, #2
    a5bc:	e5943018 	ldr	r3, [r4, #24]
    a5c0:	e3530000 	cmp	r3, #0
    a5c4:	13500000 	cmpne	r0, #0
    a5c8:	08bd81f0 	popeq	{r4, r5, r6, r7, r8, pc}
    a5cc:	e5d03000 	ldrb	r3, [r0]
    a5d0:	e3530000 	cmp	r3, #0
    a5d4:	08bd81f0 	popeq	{r4, r5, r6, r7, r8, pc}
    a5d8:	e2805001 	add	r5, r0, #1
    a5dc:	e3a07000 	mov	r7, #0
    a5e0:	e2846018 	add	r6, r4, #24
    a5e4:	ea00001a 	b	a654 <WriteText+0xa4>
    a5e8:	e353000d 	cmp	r3, #13
    a5ec:	e1a00006 	mov	r0, r6
    a5f0:	05847034 	streq	r7, [r4, #52]	; 0x34
    a5f4:	0a00000f 	beq	a638 <WriteText+0x88>
    a5f8:	e3530009 	cmp	r3, #9
    a5fc:	0a00001b 	beq	a670 <WriteText+0xc0>
    a600:	e5941034 	ldr	r1, [r4, #52]	; 0x34
    a604:	e5942038 	ldr	r2, [r4, #56]	; 0x38
    a608:	e1d436b6 	ldrh	r3, [r4, #102]	; 0x66
    a60c:	e1d4c6b8 	ldrh	ip, [r4, #104]	; 0x68
    a610:	e1a01181 	lsl	r1, r1, #3
    a614:	e1a02202 	lsl	r2, r2, #4
    a618:	e584102c 	str	r1, [r4, #44]	; 0x2c
    a61c:	e5842030 	str	r2, [r4, #48]	; 0x30
    a620:	e183380c 	orr	r3, r3, ip, lsl #16
    a624:	e5551001 	ldrb	r1, [r5, #-1]
    a628:	e12fff33 	blx	r3
    a62c:	e5943034 	ldr	r3, [r4, #52]	; 0x34
    a630:	e2833001 	add	r3, r3, #1
    a634:	e5843034 	str	r3, [r4, #52]	; 0x34
    a638:	e5943018 	ldr	r3, [r4, #24]
    a63c:	e3530000 	cmp	r3, #0
    a640:	13550000 	cmpne	r5, #0
    a644:	08bd81f0 	popeq	{r4, r5, r6, r7, r8, pc}
    a648:	e4d53001 	ldrb	r3, [r5], #1
    a64c:	e3530000 	cmp	r3, #0
    a650:	0a00000f 	beq	a694 <WriteText+0xe4>
    a654:	e353000a 	cmp	r3, #10
    a658:	1affffe2 	bne	a5e8 <WriteText+0x38>
    a65c:	e5943038 	ldr	r3, [r4, #56]	; 0x38
    a660:	e5847034 	str	r7, [r4, #52]	; 0x34
    a664:	e2833001 	add	r3, r3, #1
    a668:	e5843038 	str	r3, [r4, #56]	; 0x38
    a66c:	eafffff1 	b	a638 <WriteText+0x88>
    a670:	e5943034 	ldr	r3, [r4, #52]	; 0x34
    a674:	e2833008 	add	r3, r3, #8
    a678:	e2731000 	rsbs	r1, r3, #0
    a67c:	e2032007 	and	r2, r3, #7
    a680:	e2011007 	and	r1, r1, #7
    a684:	52612000 	rsbpl	r2, r1, #0
    a688:	e0433002 	sub	r3, r3, r2
    a68c:	e5843034 	str	r3, [r4, #52]	; 0x34
    a690:	eaffffe8 	b	a638 <WriteText+0x88>
    a694:	e8bd81f0 	pop	{r4, r5, r6, r7, r8, pc}

0000a698 <xQueueGenericCreate>:
    a698:	e92d41f0 	push	{r4, r5, r6, r7, r8, lr}
    a69c:	e1a07000 	mov	r7, r0
    a6a0:	e0000190 	mul	r0, r0, r1
    a6a4:	e1a06001 	mov	r6, r1
    a6a8:	e1a05002 	mov	r5, r2
    a6ac:	e2800050 	add	r0, r0, #80	; 0x50
    a6b0:	eb000e11 	bl	defc <pvPortMalloc>
    a6b4:	e2504000 	subs	r4, r0, #0
    a6b8:	0a00001b 	beq	a72c <xQueueGenericCreate+0x94>
    a6bc:	e584703c 	str	r7, [r4, #60]	; 0x3c
    a6c0:	e3560000 	cmp	r6, #0
    a6c4:	e5846040 	str	r6, [r4, #64]	; 0x40
    a6c8:	12843050 	addne	r3, r4, #80	; 0x50
    a6cc:	01a03004 	moveq	r3, r4
    a6d0:	e5843000 	str	r3, [r4]
    a6d4:	eb0007c2 	bl	c5e4 <vPortEnterCritical>
    a6d8:	e5943040 	ldr	r3, [r4, #64]	; 0x40
    a6dc:	e3e0c000 	mvn	ip, #0
    a6e0:	e594103c 	ldr	r1, [r4, #60]	; 0x3c
    a6e4:	e3a0e000 	mov	lr, #0
    a6e8:	e5942000 	ldr	r2, [r4]
    a6ec:	e2840010 	add	r0, r4, #16
    a6f0:	e0010391 	mul	r1, r1, r3
    a6f4:	e5842004 	str	r2, [r4, #4]
    a6f8:	e0413003 	sub	r3, r1, r3
    a6fc:	e0823003 	add	r3, r2, r3
    a700:	e0822001 	add	r2, r2, r1
    a704:	e584e038 	str	lr, [r4, #56]	; 0x38
    a708:	e584300c 	str	r3, [r4, #12]
    a70c:	e5c4c044 	strb	ip, [r4, #68]	; 0x44
    a710:	e5842008 	str	r2, [r4, #8]
    a714:	e5c4c045 	strb	ip, [r4, #69]	; 0x45
    a718:	eb000250 	bl	b060 <vListInitialise>
    a71c:	e2840024 	add	r0, r4, #36	; 0x24
    a720:	eb00024e 	bl	b060 <vListInitialise>
    a724:	eb0007b9 	bl	c610 <vPortExitCritical>
    a728:	e5c4504c 	strb	r5, [r4, #76]	; 0x4c
    a72c:	e1a00004 	mov	r0, r4
    a730:	e8bd81f0 	pop	{r4, r5, r6, r7, r8, pc}

0000a734 <xQueueGenericSend>:
    a734:	e92d4ff0 	push	{r4, r5, r6, r7, r8, r9, sl, fp, lr}
    a738:	e2436002 	sub	r6, r3, #2
    a73c:	e16f6f16 	clz	r6, r6
    a740:	e3a0a000 	mov	sl, #0
    a744:	e24dd014 	sub	sp, sp, #20
    a748:	e1a08003 	mov	r8, r3
    a74c:	e1a04000 	mov	r4, r0
    a750:	e1a09001 	mov	r9, r1
    a754:	e58d2004 	str	r2, [sp, #4]
    a758:	e1a0700a 	mov	r7, sl
    a75c:	e1a062a6 	lsr	r6, r6, #5
    a760:	eb00079f 	bl	c5e4 <vPortEnterCritical>
    a764:	e5943038 	ldr	r3, [r4, #56]	; 0x38
    a768:	e594203c 	ldr	r2, [r4, #60]	; 0x3c
    a76c:	e1530002 	cmp	r3, r2
    a770:	21a03006 	movcs	r3, r6
    a774:	33863001 	orrcc	r3, r6, #1
    a778:	e3530000 	cmp	r3, #0
    a77c:	1a000099 	bne	a9e8 <xQueueGenericSend+0x2b4>
    a780:	e59d5004 	ldr	r5, [sp, #4]
    a784:	e3550000 	cmp	r5, #0
    a788:	0a0000f9 	beq	ab74 <xQueueGenericSend+0x440>
    a78c:	e35a0000 	cmp	sl, #0
    a790:	0a000091 	beq	a9dc <xQueueGenericSend+0x2a8>
    a794:	eb00079d 	bl	c610 <vPortExitCritical>
    a798:	eb000382 	bl	b5a8 <vTaskSuspendAll>
    a79c:	eb000790 	bl	c5e4 <vPortEnterCritical>
    a7a0:	e5d43044 	ldrb	r3, [r4, #68]	; 0x44
    a7a4:	e35300ff 	cmp	r3, #255	; 0xff
    a7a8:	05c47044 	strbeq	r7, [r4, #68]	; 0x44
    a7ac:	e5d43045 	ldrb	r3, [r4, #69]	; 0x45
    a7b0:	e35300ff 	cmp	r3, #255	; 0xff
    a7b4:	05c47045 	strbeq	r7, [r4, #69]	; 0x45
    a7b8:	eb000794 	bl	c610 <vPortExitCritical>
    a7bc:	e28d1004 	add	r1, sp, #4
    a7c0:	e28d0008 	add	r0, sp, #8
    a7c4:	eb000639 	bl	c0b0 <xTaskCheckForTimeOut>
    a7c8:	e3500000 	cmp	r0, #0
    a7cc:	1a0000aa 	bne	aa7c <xQueueGenericSend+0x348>
    a7d0:	eb000783 	bl	c5e4 <vPortEnterCritical>
    a7d4:	e5942038 	ldr	r2, [r4, #56]	; 0x38
    a7d8:	e594303c 	ldr	r3, [r4, #60]	; 0x3c
    a7dc:	e1520003 	cmp	r2, r3
    a7e0:	0a00003d 	beq	a8dc <xQueueGenericSend+0x1a8>
    a7e4:	eb000789 	bl	c610 <vPortExitCritical>
    a7e8:	eb00077d 	bl	c5e4 <vPortEnterCritical>
    a7ec:	e5d45045 	ldrb	r5, [r4, #69]	; 0x45
    a7f0:	e6af5075 	sxtb	r5, r5
    a7f4:	e3550000 	cmp	r5, #0
    a7f8:	da000014 	ble	a850 <xQueueGenericSend+0x11c>
    a7fc:	e5943024 	ldr	r3, [r4, #36]	; 0x24
    a800:	e3530000 	cmp	r3, #0
    a804:	0a000011 	beq	a850 <xQueueGenericSend+0x11c>
    a808:	e284a024 	add	sl, r4, #36	; 0x24
    a80c:	ea000006 	b	a82c <xQueueGenericSend+0xf8>
    a810:	e2455001 	sub	r5, r5, #1
    a814:	e6af5075 	sxtb	r5, r5
    a818:	e3550000 	cmp	r5, #0
    a81c:	0a00000b 	beq	a850 <xQueueGenericSend+0x11c>
    a820:	e5943024 	ldr	r3, [r4, #36]	; 0x24
    a824:	e3530000 	cmp	r3, #0
    a828:	0a000008 	beq	a850 <xQueueGenericSend+0x11c>
    a82c:	e1a0000a 	mov	r0, sl
    a830:	eb0005f4 	bl	c008 <xTaskRemoveFromEventList>
    a834:	e3500000 	cmp	r0, #0
    a838:	0afffff4 	beq	a810 <xQueueGenericSend+0xdc>
    a83c:	e2455001 	sub	r5, r5, #1
    a840:	eb00063c 	bl	c138 <vTaskMissedYield>
    a844:	e6af5075 	sxtb	r5, r5
    a848:	e3550000 	cmp	r5, #0
    a84c:	1afffff3 	bne	a820 <xQueueGenericSend+0xec>
    a850:	e3e03000 	mvn	r3, #0
    a854:	e5c43045 	strb	r3, [r4, #69]	; 0x45
    a858:	eb00076c 	bl	c610 <vPortExitCritical>
    a85c:	eb000760 	bl	c5e4 <vPortEnterCritical>
    a860:	e5d45044 	ldrb	r5, [r4, #68]	; 0x44
    a864:	e6af5075 	sxtb	r5, r5
    a868:	e3550000 	cmp	r5, #0
    a86c:	da000014 	ble	a8c4 <xQueueGenericSend+0x190>
    a870:	e5943010 	ldr	r3, [r4, #16]
    a874:	e3530000 	cmp	r3, #0
    a878:	0a000011 	beq	a8c4 <xQueueGenericSend+0x190>
    a87c:	e284a010 	add	sl, r4, #16
    a880:	ea000006 	b	a8a0 <xQueueGenericSend+0x16c>
    a884:	e2455001 	sub	r5, r5, #1
    a888:	e6af5075 	sxtb	r5, r5
    a88c:	e3550000 	cmp	r5, #0
    a890:	0a00000b 	beq	a8c4 <xQueueGenericSend+0x190>
    a894:	e5943010 	ldr	r3, [r4, #16]
    a898:	e3530000 	cmp	r3, #0
    a89c:	0a000008 	beq	a8c4 <xQueueGenericSend+0x190>
    a8a0:	e1a0000a 	mov	r0, sl
    a8a4:	eb0005d7 	bl	c008 <xTaskRemoveFromEventList>
    a8a8:	e3500000 	cmp	r0, #0
    a8ac:	0afffff4 	beq	a884 <xQueueGenericSend+0x150>
    a8b0:	e2455001 	sub	r5, r5, #1
    a8b4:	eb00061f 	bl	c138 <vTaskMissedYield>
    a8b8:	e6af5075 	sxtb	r5, r5
    a8bc:	e3550000 	cmp	r5, #0
    a8c0:	1afffff3 	bne	a894 <xQueueGenericSend+0x160>
    a8c4:	e3e03000 	mvn	r3, #0
    a8c8:	e5c43044 	strb	r3, [r4, #68]	; 0x44
    a8cc:	eb00074f 	bl	c610 <vPortExitCritical>
    a8d0:	eb0003a1 	bl	b75c <xTaskResumeAll>
    a8d4:	e3a0a001 	mov	sl, #1
    a8d8:	eaffffa0 	b	a760 <xQueueGenericSend+0x2c>
    a8dc:	e284a010 	add	sl, r4, #16
    a8e0:	eb00074a 	bl	c610 <vPortExitCritical>
    a8e4:	e59d1004 	ldr	r1, [sp, #4]
    a8e8:	e1a0000a 	mov	r0, sl
    a8ec:	eb0005a1 	bl	bf78 <vTaskPlaceOnEventList>
    a8f0:	eb00073b 	bl	c5e4 <vPortEnterCritical>
    a8f4:	e5d45045 	ldrb	r5, [r4, #69]	; 0x45
    a8f8:	e6af5075 	sxtb	r5, r5
    a8fc:	e3550000 	cmp	r5, #0
    a900:	da000014 	ble	a958 <xQueueGenericSend+0x224>
    a904:	e5943024 	ldr	r3, [r4, #36]	; 0x24
    a908:	e3530000 	cmp	r3, #0
    a90c:	0a000011 	beq	a958 <xQueueGenericSend+0x224>
    a910:	e284b024 	add	fp, r4, #36	; 0x24
    a914:	ea000006 	b	a934 <xQueueGenericSend+0x200>
    a918:	e2455001 	sub	r5, r5, #1
    a91c:	e6af5075 	sxtb	r5, r5
    a920:	e3550000 	cmp	r5, #0
    a924:	0a00000b 	beq	a958 <xQueueGenericSend+0x224>
    a928:	e5943024 	ldr	r3, [r4, #36]	; 0x24
    a92c:	e3530000 	cmp	r3, #0
    a930:	0a000008 	beq	a958 <xQueueGenericSend+0x224>
    a934:	e1a0000b 	mov	r0, fp
    a938:	eb0005b2 	bl	c008 <xTaskRemoveFromEventList>
    a93c:	e3500000 	cmp	r0, #0
    a940:	0afffff4 	beq	a918 <xQueueGenericSend+0x1e4>
    a944:	e2455001 	sub	r5, r5, #1
    a948:	eb0005fa 	bl	c138 <vTaskMissedYield>
    a94c:	e6af5075 	sxtb	r5, r5
    a950:	e3550000 	cmp	r5, #0
    a954:	1afffff3 	bne	a928 <xQueueGenericSend+0x1f4>
    a958:	e3e03000 	mvn	r3, #0
    a95c:	e5c43045 	strb	r3, [r4, #69]	; 0x45
    a960:	eb00072a 	bl	c610 <vPortExitCritical>
    a964:	eb00071e 	bl	c5e4 <vPortEnterCritical>
    a968:	e5d45044 	ldrb	r5, [r4, #68]	; 0x44
    a96c:	e6af5075 	sxtb	r5, r5
    a970:	e3550000 	cmp	r5, #0
    a974:	ca000004 	bgt	a98c <xQueueGenericSend+0x258>
    a978:	ea00000f 	b	a9bc <xQueueGenericSend+0x288>
    a97c:	e2455001 	sub	r5, r5, #1
    a980:	e6af5075 	sxtb	r5, r5
    a984:	e3550000 	cmp	r5, #0
    a988:	0a00000b 	beq	a9bc <xQueueGenericSend+0x288>
    a98c:	e5943010 	ldr	r3, [r4, #16]
    a990:	e3530000 	cmp	r3, #0
    a994:	0a000008 	beq	a9bc <xQueueGenericSend+0x288>
    a998:	e1a0000a 	mov	r0, sl
    a99c:	eb000599 	bl	c008 <xTaskRemoveFromEventList>
    a9a0:	e3500000 	cmp	r0, #0
    a9a4:	0afffff4 	beq	a97c <xQueueGenericSend+0x248>
    a9a8:	e2455001 	sub	r5, r5, #1
    a9ac:	eb0005e1 	bl	c138 <vTaskMissedYield>
    a9b0:	e6af5075 	sxtb	r5, r5
    a9b4:	e3550000 	cmp	r5, #0
    a9b8:	1afffff3 	bne	a98c <xQueueGenericSend+0x258>
    a9bc:	e3e03000 	mvn	r3, #0
    a9c0:	e5c43044 	strb	r3, [r4, #68]	; 0x44
    a9c4:	eb000711 	bl	c610 <vPortExitCritical>
    a9c8:	eb000363 	bl	b75c <xTaskResumeAll>
    a9cc:	e3500000 	cmp	r0, #0
    a9d0:	1affffbf 	bne	a8d4 <xQueueGenericSend+0x1a0>
    a9d4:	ef000000 	svc	0x00000000
    a9d8:	eaffffbd 	b	a8d4 <xQueueGenericSend+0x1a0>
    a9dc:	e28d0008 	add	r0, sp, #8
    a9e0:	eb0005ac 	bl	c098 <vTaskInternalSetTimeOutState>
    a9e4:	eaffff6a 	b	a794 <xQueueGenericSend+0x60>
    a9e8:	e5942040 	ldr	r2, [r4, #64]	; 0x40
    a9ec:	e5945038 	ldr	r5, [r4, #56]	; 0x38
    a9f0:	e3520000 	cmp	r2, #0
    a9f4:	1a000010 	bne	aa3c <xQueueGenericSend+0x308>
    a9f8:	e5946000 	ldr	r6, [r4]
    a9fc:	e3560000 	cmp	r6, #0
    aa00:	0a000071 	beq	abcc <xQueueGenericSend+0x498>
    aa04:	e2855001 	add	r5, r5, #1
    aa08:	e5845038 	str	r5, [r4, #56]	; 0x38
    aa0c:	e5943024 	ldr	r3, [r4, #36]	; 0x24
    aa10:	e3530000 	cmp	r3, #0
    aa14:	0a000004 	beq	aa2c <xQueueGenericSend+0x2f8>
    aa18:	e2840024 	add	r0, r4, #36	; 0x24
    aa1c:	eb000579 	bl	c008 <xTaskRemoveFromEventList>
    aa20:	e3500000 	cmp	r0, #0
    aa24:	0a000000 	beq	aa2c <xQueueGenericSend+0x2f8>
    aa28:	ef000000 	svc	0x00000000
    aa2c:	eb0006f7 	bl	c610 <vPortExitCritical>
    aa30:	e3a00001 	mov	r0, #1
    aa34:	e28dd014 	add	sp, sp, #20
    aa38:	e8bd8ff0 	pop	{r4, r5, r6, r7, r8, r9, sl, fp, pc}
    aa3c:	e3580000 	cmp	r8, #0
    aa40:	1a00004f 	bne	ab84 <xQueueGenericSend+0x450>
    aa44:	e5940004 	ldr	r0, [r4, #4]
    aa48:	e1a01009 	mov	r1, r9
    aa4c:	fa000dd9 	blx	e1b8 <memcpy>
    aa50:	e5943004 	ldr	r3, [r4, #4]
    aa54:	e5941040 	ldr	r1, [r4, #64]	; 0x40
    aa58:	e5942008 	ldr	r2, [r4, #8]
    aa5c:	e0833001 	add	r3, r3, r1
    aa60:	e1530002 	cmp	r3, r2
    aa64:	e5843004 	str	r3, [r4, #4]
    aa68:	3affffe5 	bcc	aa04 <xQueueGenericSend+0x2d0>
    aa6c:	e5943000 	ldr	r3, [r4]
    aa70:	e2855001 	add	r5, r5, #1
    aa74:	e5843004 	str	r3, [r4, #4]
    aa78:	eaffffe2 	b	aa08 <xQueueGenericSend+0x2d4>
    aa7c:	eb0006d8 	bl	c5e4 <vPortEnterCritical>
    aa80:	e5d45045 	ldrb	r5, [r4, #69]	; 0x45
    aa84:	e6af5075 	sxtb	r5, r5
    aa88:	e3550000 	cmp	r5, #0
    aa8c:	da000014 	ble	aae4 <xQueueGenericSend+0x3b0>
    aa90:	e5943024 	ldr	r3, [r4, #36]	; 0x24
    aa94:	e3530000 	cmp	r3, #0
    aa98:	0a000011 	beq	aae4 <xQueueGenericSend+0x3b0>
    aa9c:	e2846024 	add	r6, r4, #36	; 0x24
    aaa0:	ea000006 	b	aac0 <xQueueGenericSend+0x38c>
    aaa4:	e2455001 	sub	r5, r5, #1
    aaa8:	e6af5075 	sxtb	r5, r5
    aaac:	e3550000 	cmp	r5, #0
    aab0:	0a00000b 	beq	aae4 <xQueueGenericSend+0x3b0>
    aab4:	e5943024 	ldr	r3, [r4, #36]	; 0x24
    aab8:	e3530000 	cmp	r3, #0
    aabc:	0a000008 	beq	aae4 <xQueueGenericSend+0x3b0>
    aac0:	e1a00006 	mov	r0, r6
    aac4:	eb00054f 	bl	c008 <xTaskRemoveFromEventList>
    aac8:	e3500000 	cmp	r0, #0
    aacc:	0afffff4 	beq	aaa4 <xQueueGenericSend+0x370>
    aad0:	e2455001 	sub	r5, r5, #1
    aad4:	eb000597 	bl	c138 <vTaskMissedYield>
    aad8:	e6af5075 	sxtb	r5, r5
    aadc:	e3550000 	cmp	r5, #0
    aae0:	1afffff3 	bne	aab4 <xQueueGenericSend+0x380>
    aae4:	e3e03000 	mvn	r3, #0
    aae8:	e5c43045 	strb	r3, [r4, #69]	; 0x45
    aaec:	eb0006c7 	bl	c610 <vPortExitCritical>
    aaf0:	eb0006bb 	bl	c5e4 <vPortEnterCritical>
    aaf4:	e5d45044 	ldrb	r5, [r4, #68]	; 0x44
    aaf8:	e6af5075 	sxtb	r5, r5
    aafc:	e3550000 	cmp	r5, #0
    ab00:	da000014 	ble	ab58 <xQueueGenericSend+0x424>
    ab04:	e5943010 	ldr	r3, [r4, #16]
    ab08:	e3530000 	cmp	r3, #0
    ab0c:	0a000011 	beq	ab58 <xQueueGenericSend+0x424>
    ab10:	e2846010 	add	r6, r4, #16
    ab14:	ea000006 	b	ab34 <xQueueGenericSend+0x400>
    ab18:	e2455001 	sub	r5, r5, #1
    ab1c:	e6af5075 	sxtb	r5, r5
    ab20:	e3550000 	cmp	r5, #0
    ab24:	0a00000b 	beq	ab58 <xQueueGenericSend+0x424>
    ab28:	e5943010 	ldr	r3, [r4, #16]
    ab2c:	e3530000 	cmp	r3, #0
    ab30:	0a000008 	beq	ab58 <xQueueGenericSend+0x424>
    ab34:	e1a00006 	mov	r0, r6
    ab38:	eb000532 	bl	c008 <xTaskRemoveFromEventList>
    ab3c:	e3500000 	cmp	r0, #0
    ab40:	0afffff4 	beq	ab18 <xQueueGenericSend+0x3e4>
    ab44:	e2455001 	sub	r5, r5, #1
    ab48:	eb00057a 	bl	c138 <vTaskMissedYield>
    ab4c:	e6af5075 	sxtb	r5, r5
    ab50:	e3550000 	cmp	r5, #0
    ab54:	1afffff3 	bne	ab28 <xQueueGenericSend+0x3f4>
    ab58:	e3e03000 	mvn	r3, #0
    ab5c:	e5c43044 	strb	r3, [r4, #68]	; 0x44
    ab60:	eb0006aa 	bl	c610 <vPortExitCritical>
    ab64:	eb0002fc 	bl	b75c <xTaskResumeAll>
    ab68:	e3a00000 	mov	r0, #0
    ab6c:	e28dd014 	add	sp, sp, #20
    ab70:	e8bd8ff0 	pop	{r4, r5, r6, r7, r8, r9, sl, fp, pc}
    ab74:	eb0006a5 	bl	c610 <vPortExitCritical>
    ab78:	e1a00005 	mov	r0, r5
    ab7c:	e28dd014 	add	sp, sp, #20
    ab80:	e8bd8ff0 	pop	{r4, r5, r6, r7, r8, r9, sl, fp, pc}
    ab84:	e594000c 	ldr	r0, [r4, #12]
    ab88:	e1a01009 	mov	r1, r9
    ab8c:	fa000d89 	blx	e1b8 <memcpy>
    ab90:	e5942040 	ldr	r2, [r4, #64]	; 0x40
    ab94:	e594300c 	ldr	r3, [r4, #12]
    ab98:	e2622000 	rsb	r2, r2, #0
    ab9c:	e5941000 	ldr	r1, [r4]
    aba0:	e0833002 	add	r3, r3, r2
    aba4:	e1530001 	cmp	r3, r1
    aba8:	e584300c 	str	r3, [r4, #12]
    abac:	35943008 	ldrcc	r3, [r4, #8]
    abb0:	30832002 	addcc	r2, r3, r2
    abb4:	3584200c 	strcc	r2, [r4, #12]
    abb8:	e3580002 	cmp	r8, #2
    abbc:	1affff90 	bne	aa04 <xQueueGenericSend+0x2d0>
    abc0:	e3550000 	cmp	r5, #0
    abc4:	03a05001 	moveq	r5, #1
    abc8:	eaffff8e 	b	aa08 <xQueueGenericSend+0x2d4>
    abcc:	e5940008 	ldr	r0, [r4, #8]
    abd0:	e2855001 	add	r5, r5, #1
    abd4:	eb000590 	bl	c21c <xTaskPriorityDisinherit>
    abd8:	e5845038 	str	r5, [r4, #56]	; 0x38
    abdc:	e5943024 	ldr	r3, [r4, #36]	; 0x24
    abe0:	e5846008 	str	r6, [r4, #8]
    abe4:	e3530000 	cmp	r3, #0
    abe8:	1affff8a 	bne	aa18 <xQueueGenericSend+0x2e4>
    abec:	e3500000 	cmp	r0, #0
    abf0:	1affff8c 	bne	aa28 <xQueueGenericSend+0x2f4>
    abf4:	eaffff8c 	b	aa2c <xQueueGenericSend+0x2f8>

0000abf8 <xQueueSemaphoreTake>:
    abf8:	e92d41f0 	push	{r4, r5, r6, r7, r8, lr}
    abfc:	e1a04000 	mov	r4, r0
    ac00:	e24dd010 	sub	sp, sp, #16
    ac04:	e3a07000 	mov	r7, #0
    ac08:	e1a08007 	mov	r8, r7
    ac0c:	e1a06007 	mov	r6, r7
    ac10:	e58d1004 	str	r1, [sp, #4]
    ac14:	eb000672 	bl	c5e4 <vPortEnterCritical>
    ac18:	e5943038 	ldr	r3, [r4, #56]	; 0x38
    ac1c:	e3530000 	cmp	r3, #0
    ac20:	1a000099 	bne	ae8c <xQueueSemaphoreTake+0x294>
    ac24:	e59d5004 	ldr	r5, [sp, #4]
    ac28:	e3550000 	cmp	r5, #0
    ac2c:	0a0000f7 	beq	b010 <xQueueSemaphoreTake+0x418>
    ac30:	e3580000 	cmp	r8, #0
    ac34:	0a0000e4 	beq	afcc <xQueueSemaphoreTake+0x3d4>
    ac38:	eb000674 	bl	c610 <vPortExitCritical>
    ac3c:	eb000259 	bl	b5a8 <vTaskSuspendAll>
    ac40:	eb000667 	bl	c5e4 <vPortEnterCritical>
    ac44:	e5d43044 	ldrb	r3, [r4, #68]	; 0x44
    ac48:	e35300ff 	cmp	r3, #255	; 0xff
    ac4c:	05c46044 	strbeq	r6, [r4, #68]	; 0x44
    ac50:	e5d43045 	ldrb	r3, [r4, #69]	; 0x45
    ac54:	e35300ff 	cmp	r3, #255	; 0xff
    ac58:	05c46045 	strbeq	r6, [r4, #69]	; 0x45
    ac5c:	eb00066b 	bl	c610 <vPortExitCritical>
    ac60:	e28d1004 	add	r1, sp, #4
    ac64:	e28d0008 	add	r0, sp, #8
    ac68:	eb000510 	bl	c0b0 <xTaskCheckForTimeOut>
    ac6c:	e3500000 	cmp	r0, #0
    ac70:	1a000040 	bne	ad78 <xQueueSemaphoreTake+0x180>
    ac74:	eb00065a 	bl	c5e4 <vPortEnterCritical>
    ac78:	e5943038 	ldr	r3, [r4, #56]	; 0x38
    ac7c:	e3530000 	cmp	r3, #0
    ac80:	0a00008e 	beq	aec0 <xQueueSemaphoreTake+0x2c8>
    ac84:	eb000661 	bl	c610 <vPortExitCritical>
    ac88:	eb000655 	bl	c5e4 <vPortEnterCritical>
    ac8c:	e5d45045 	ldrb	r5, [r4, #69]	; 0x45
    ac90:	e6af5075 	sxtb	r5, r5
    ac94:	e3550000 	cmp	r5, #0
    ac98:	da000014 	ble	acf0 <xQueueSemaphoreTake+0xf8>
    ac9c:	e5943024 	ldr	r3, [r4, #36]	; 0x24
    aca0:	e3530000 	cmp	r3, #0
    aca4:	0a000011 	beq	acf0 <xQueueSemaphoreTake+0xf8>
    aca8:	e2848024 	add	r8, r4, #36	; 0x24
    acac:	ea000006 	b	accc <xQueueSemaphoreTake+0xd4>
    acb0:	e2455001 	sub	r5, r5, #1
    acb4:	e6af5075 	sxtb	r5, r5
    acb8:	e3550000 	cmp	r5, #0
    acbc:	0a00000b 	beq	acf0 <xQueueSemaphoreTake+0xf8>
    acc0:	e5943024 	ldr	r3, [r4, #36]	; 0x24
    acc4:	e3530000 	cmp	r3, #0
    acc8:	0a000008 	beq	acf0 <xQueueSemaphoreTake+0xf8>
    accc:	e1a00008 	mov	r0, r8
    acd0:	eb0004cc 	bl	c008 <xTaskRemoveFromEventList>
    acd4:	e3500000 	cmp	r0, #0
    acd8:	0afffff4 	beq	acb0 <xQueueSemaphoreTake+0xb8>
    acdc:	e2455001 	sub	r5, r5, #1
    ace0:	eb000514 	bl	c138 <vTaskMissedYield>
    ace4:	e6af5075 	sxtb	r5, r5
    ace8:	e3550000 	cmp	r5, #0
    acec:	1afffff3 	bne	acc0 <xQueueSemaphoreTake+0xc8>
    acf0:	e3e03000 	mvn	r3, #0
    acf4:	e5c43045 	strb	r3, [r4, #69]	; 0x45
    acf8:	eb000644 	bl	c610 <vPortExitCritical>
    acfc:	eb000638 	bl	c5e4 <vPortEnterCritical>
    ad00:	e5d45044 	ldrb	r5, [r4, #68]	; 0x44
    ad04:	e6af5075 	sxtb	r5, r5
    ad08:	e3550000 	cmp	r5, #0
    ad0c:	da000014 	ble	ad64 <xQueueSemaphoreTake+0x16c>
    ad10:	e5943010 	ldr	r3, [r4, #16]
    ad14:	e3530000 	cmp	r3, #0
    ad18:	0a000011 	beq	ad64 <xQueueSemaphoreTake+0x16c>
    ad1c:	e2848010 	add	r8, r4, #16
    ad20:	ea000006 	b	ad40 <xQueueSemaphoreTake+0x148>
    ad24:	e2455001 	sub	r5, r5, #1
    ad28:	e6af5075 	sxtb	r5, r5
    ad2c:	e3550000 	cmp	r5, #0
    ad30:	0a00000b 	beq	ad64 <xQueueSemaphoreTake+0x16c>
    ad34:	e5943010 	ldr	r3, [r4, #16]
    ad38:	e3530000 	cmp	r3, #0
    ad3c:	0a000008 	beq	ad64 <xQueueSemaphoreTake+0x16c>
    ad40:	e1a00008 	mov	r0, r8
    ad44:	eb0004af 	bl	c008 <xTaskRemoveFromEventList>
    ad48:	e3500000 	cmp	r0, #0
    ad4c:	0afffff4 	beq	ad24 <xQueueSemaphoreTake+0x12c>
    ad50:	e2455001 	sub	r5, r5, #1
    ad54:	eb0004f7 	bl	c138 <vTaskMissedYield>
    ad58:	e6af5075 	sxtb	r5, r5
    ad5c:	e3550000 	cmp	r5, #0
    ad60:	1afffff3 	bne	ad34 <xQueueSemaphoreTake+0x13c>
    ad64:	e3e03000 	mvn	r3, #0
    ad68:	e5c43044 	strb	r3, [r4, #68]	; 0x44
    ad6c:	eb000627 	bl	c610 <vPortExitCritical>
    ad70:	eb000279 	bl	b75c <xTaskResumeAll>
    ad74:	ea00003f 	b	ae78 <xQueueSemaphoreTake+0x280>
    ad78:	eb000619 	bl	c5e4 <vPortEnterCritical>
    ad7c:	e5d45045 	ldrb	r5, [r4, #69]	; 0x45
    ad80:	e6af5075 	sxtb	r5, r5
    ad84:	e3550000 	cmp	r5, #0
    ad88:	da000014 	ble	ade0 <xQueueSemaphoreTake+0x1e8>
    ad8c:	e5943024 	ldr	r3, [r4, #36]	; 0x24
    ad90:	e3530000 	cmp	r3, #0
    ad94:	0a000011 	beq	ade0 <xQueueSemaphoreTake+0x1e8>
    ad98:	e2848024 	add	r8, r4, #36	; 0x24
    ad9c:	ea000006 	b	adbc <xQueueSemaphoreTake+0x1c4>
    ada0:	e2455001 	sub	r5, r5, #1
    ada4:	e6af5075 	sxtb	r5, r5
    ada8:	e3550000 	cmp	r5, #0
    adac:	0a00000b 	beq	ade0 <xQueueSemaphoreTake+0x1e8>
    adb0:	e5943024 	ldr	r3, [r4, #36]	; 0x24
    adb4:	e3530000 	cmp	r3, #0
    adb8:	0a000008 	beq	ade0 <xQueueSemaphoreTake+0x1e8>
    adbc:	e1a00008 	mov	r0, r8
    adc0:	eb000490 	bl	c008 <xTaskRemoveFromEventList>
    adc4:	e3500000 	cmp	r0, #0
    adc8:	0afffff4 	beq	ada0 <xQueueSemaphoreTake+0x1a8>
    adcc:	e2455001 	sub	r5, r5, #1
    add0:	eb0004d8 	bl	c138 <vTaskMissedYield>
    add4:	e6af5075 	sxtb	r5, r5
    add8:	e3550000 	cmp	r5, #0
    addc:	1afffff3 	bne	adb0 <xQueueSemaphoreTake+0x1b8>
    ade0:	e3e03000 	mvn	r3, #0
    ade4:	e5c43045 	strb	r3, [r4, #69]	; 0x45
    ade8:	eb000608 	bl	c610 <vPortExitCritical>
    adec:	eb0005fc 	bl	c5e4 <vPortEnterCritical>
    adf0:	e5d45044 	ldrb	r5, [r4, #68]	; 0x44
    adf4:	e6af5075 	sxtb	r5, r5
    adf8:	e3550000 	cmp	r5, #0
    adfc:	da000014 	ble	ae54 <xQueueSemaphoreTake+0x25c>
    ae00:	e5943010 	ldr	r3, [r4, #16]
    ae04:	e3530000 	cmp	r3, #0
    ae08:	0a000011 	beq	ae54 <xQueueSemaphoreTake+0x25c>
    ae0c:	e2848010 	add	r8, r4, #16
    ae10:	ea000006 	b	ae30 <xQueueSemaphoreTake+0x238>
    ae14:	e2455001 	sub	r5, r5, #1
    ae18:	e6af5075 	sxtb	r5, r5
    ae1c:	e3550000 	cmp	r5, #0
    ae20:	0a00000b 	beq	ae54 <xQueueSemaphoreTake+0x25c>
    ae24:	e5943010 	ldr	r3, [r4, #16]
    ae28:	e3530000 	cmp	r3, #0
    ae2c:	0a000008 	beq	ae54 <xQueueSemaphoreTake+0x25c>
    ae30:	e1a00008 	mov	r0, r8
    ae34:	eb000473 	bl	c008 <xTaskRemoveFromEventList>
    ae38:	e3500000 	cmp	r0, #0
    ae3c:	0afffff4 	beq	ae14 <xQueueSemaphoreTake+0x21c>
    ae40:	e2455001 	sub	r5, r5, #1
    ae44:	eb0004bb 	bl	c138 <vTaskMissedYield>
    ae48:	e6af5075 	sxtb	r5, r5
    ae4c:	e3550000 	cmp	r5, #0
    ae50:	1afffff3 	bne	ae24 <xQueueSemaphoreTake+0x22c>
    ae54:	e3e03000 	mvn	r3, #0
    ae58:	e5c43044 	strb	r3, [r4, #68]	; 0x44
    ae5c:	eb0005eb 	bl	c610 <vPortExitCritical>
    ae60:	eb00023d 	bl	b75c <xTaskResumeAll>
    ae64:	eb0005de 	bl	c5e4 <vPortEnterCritical>
    ae68:	e5943038 	ldr	r3, [r4, #56]	; 0x38
    ae6c:	e3530000 	cmp	r3, #0
    ae70:	0a000058 	beq	afd8 <xQueueSemaphoreTake+0x3e0>
    ae74:	eb0005e5 	bl	c610 <vPortExitCritical>
    ae78:	e3a08001 	mov	r8, #1
    ae7c:	eb0005d8 	bl	c5e4 <vPortEnterCritical>
    ae80:	e5943038 	ldr	r3, [r4, #56]	; 0x38
    ae84:	e3530000 	cmp	r3, #0
    ae88:	0affff65 	beq	ac24 <xQueueSemaphoreTake+0x2c>
    ae8c:	e5942000 	ldr	r2, [r4]
    ae90:	e2433001 	sub	r3, r3, #1
    ae94:	e5843038 	str	r3, [r4, #56]	; 0x38
    ae98:	e3520000 	cmp	r2, #0
    ae9c:	0a00006c 	beq	b054 <xQueueSemaphoreTake+0x45c>
    aea0:	e5943010 	ldr	r3, [r4, #16]
    aea4:	e3530000 	cmp	r3, #0
    aea8:	1a000063 	bne	b03c <xQueueSemaphoreTake+0x444>
    aeac:	e3a07001 	mov	r7, #1
    aeb0:	eb0005d6 	bl	c610 <vPortExitCritical>
    aeb4:	e1a00007 	mov	r0, r7
    aeb8:	e28dd010 	add	sp, sp, #16
    aebc:	e8bd81f0 	pop	{r4, r5, r6, r7, r8, pc}
    aec0:	eb0005d2 	bl	c610 <vPortExitCritical>
    aec4:	e5943000 	ldr	r3, [r4]
    aec8:	e3530000 	cmp	r3, #0
    aecc:	0a000054 	beq	b024 <xQueueSemaphoreTake+0x42c>
    aed0:	e59d1004 	ldr	r1, [sp, #4]
    aed4:	e2848024 	add	r8, r4, #36	; 0x24
    aed8:	e1a00008 	mov	r0, r8
    aedc:	eb000425 	bl	bf78 <vTaskPlaceOnEventList>
    aee0:	eb0005bf 	bl	c5e4 <vPortEnterCritical>
    aee4:	e5d45045 	ldrb	r5, [r4, #69]	; 0x45
    aee8:	e6af5075 	sxtb	r5, r5
    aeec:	e3550000 	cmp	r5, #0
    aef0:	ca000004 	bgt	af08 <xQueueSemaphoreTake+0x310>
    aef4:	ea00000f 	b	af38 <xQueueSemaphoreTake+0x340>
    aef8:	e2455001 	sub	r5, r5, #1
    aefc:	e6af5075 	sxtb	r5, r5
    af00:	e3550000 	cmp	r5, #0
    af04:	0a00000b 	beq	af38 <xQueueSemaphoreTake+0x340>
    af08:	e5943024 	ldr	r3, [r4, #36]	; 0x24
    af0c:	e3530000 	cmp	r3, #0
    af10:	0a000008 	beq	af38 <xQueueSemaphoreTake+0x340>
    af14:	e1a00008 	mov	r0, r8
    af18:	eb00043a 	bl	c008 <xTaskRemoveFromEventList>
    af1c:	e3500000 	cmp	r0, #0
    af20:	0afffff4 	beq	aef8 <xQueueSemaphoreTake+0x300>
    af24:	e2455001 	sub	r5, r5, #1
    af28:	eb000482 	bl	c138 <vTaskMissedYield>
    af2c:	e6af5075 	sxtb	r5, r5
    af30:	e3550000 	cmp	r5, #0
    af34:	1afffff3 	bne	af08 <xQueueSemaphoreTake+0x310>
    af38:	e3e03000 	mvn	r3, #0
    af3c:	e5c43045 	strb	r3, [r4, #69]	; 0x45
    af40:	eb0005b2 	bl	c610 <vPortExitCritical>
    af44:	eb0005a6 	bl	c5e4 <vPortEnterCritical>
    af48:	e5d45044 	ldrb	r5, [r4, #68]	; 0x44
    af4c:	e6af5075 	sxtb	r5, r5
    af50:	e3550000 	cmp	r5, #0
    af54:	da000014 	ble	afac <xQueueSemaphoreTake+0x3b4>
    af58:	e5943010 	ldr	r3, [r4, #16]
    af5c:	e3530000 	cmp	r3, #0
    af60:	0a000011 	beq	afac <xQueueSemaphoreTake+0x3b4>
    af64:	e2848010 	add	r8, r4, #16
    af68:	ea000006 	b	af88 <xQueueSemaphoreTake+0x390>
    af6c:	e2455001 	sub	r5, r5, #1
    af70:	e6af5075 	sxtb	r5, r5
    af74:	e3550000 	cmp	r5, #0
    af78:	0a00000b 	beq	afac <xQueueSemaphoreTake+0x3b4>
    af7c:	e5943010 	ldr	r3, [r4, #16]
    af80:	e3530000 	cmp	r3, #0
    af84:	0a000008 	beq	afac <xQueueSemaphoreTake+0x3b4>
    af88:	e1a00008 	mov	r0, r8
    af8c:	eb00041d 	bl	c008 <xTaskRemoveFromEventList>
    af90:	e3500000 	cmp	r0, #0
    af94:	0afffff4 	beq	af6c <xQueueSemaphoreTake+0x374>
    af98:	e2455001 	sub	r5, r5, #1
    af9c:	eb000465 	bl	c138 <vTaskMissedYield>
    afa0:	e6af5075 	sxtb	r5, r5
    afa4:	e3550000 	cmp	r5, #0
    afa8:	1afffff3 	bne	af7c <xQueueSemaphoreTake+0x384>
    afac:	e3e03000 	mvn	r3, #0
    afb0:	e5c43044 	strb	r3, [r4, #68]	; 0x44
    afb4:	eb000595 	bl	c610 <vPortExitCritical>
    afb8:	eb0001e7 	bl	b75c <xTaskResumeAll>
    afbc:	e3500000 	cmp	r0, #0
    afc0:	1affffac 	bne	ae78 <xQueueSemaphoreTake+0x280>
    afc4:	ef000000 	svc	0x00000000
    afc8:	eaffffaa 	b	ae78 <xQueueSemaphoreTake+0x280>
    afcc:	e28d0008 	add	r0, sp, #8
    afd0:	eb000430 	bl	c098 <vTaskInternalSetTimeOutState>
    afd4:	eaffff17 	b	ac38 <xQueueSemaphoreTake+0x40>
    afd8:	eb00058c 	bl	c610 <vPortExitCritical>
    afdc:	e3570000 	cmp	r7, #0
    afe0:	0affffb3 	beq	aeb4 <xQueueSemaphoreTake+0x2bc>
    afe4:	e3a07000 	mov	r7, #0
    afe8:	eb00057d 	bl	c5e4 <vPortEnterCritical>
    afec:	e5941024 	ldr	r1, [r4, #36]	; 0x24
    aff0:	e5940008 	ldr	r0, [r4, #8]
    aff4:	e3510000 	cmp	r1, #0
    aff8:	15943030 	ldrne	r3, [r4, #48]	; 0x30
    affc:	15931000 	ldrne	r1, [r3]
    b000:	12611005 	rsbne	r1, r1, #5
    b004:	eb0004a8 	bl	c2ac <vTaskPriorityDisinheritAfterTimeout>
    b008:	eb000580 	bl	c610 <vPortExitCritical>
    b00c:	eaffffa8 	b	aeb4 <xQueueSemaphoreTake+0x2bc>
    b010:	e1a07005 	mov	r7, r5
    b014:	eb00057d 	bl	c610 <vPortExitCritical>
    b018:	e1a00007 	mov	r0, r7
    b01c:	e28dd010 	add	sp, sp, #16
    b020:	e8bd81f0 	pop	{r4, r5, r6, r7, r8, pc}
    b024:	eb00056e 	bl	c5e4 <vPortEnterCritical>
    b028:	e5940008 	ldr	r0, [r4, #8]
    b02c:	eb000446 	bl	c14c <xTaskPriorityInherit>
    b030:	e1a07000 	mov	r7, r0
    b034:	eb000575 	bl	c610 <vPortExitCritical>
    b038:	eaffffa4 	b	aed0 <xQueueSemaphoreTake+0x2d8>
    b03c:	e2840010 	add	r0, r4, #16
    b040:	eb0003f0 	bl	c008 <xTaskRemoveFromEventList>
    b044:	e3500000 	cmp	r0, #0
    b048:	0affff97 	beq	aeac <xQueueSemaphoreTake+0x2b4>
    b04c:	ef000000 	svc	0x00000000
    b050:	eaffff95 	b	aeac <xQueueSemaphoreTake+0x2b4>
    b054:	eb0004ec 	bl	c40c <pvTaskIncrementMutexHeldCount>
    b058:	e5840008 	str	r0, [r4, #8]
    b05c:	eaffff8f 	b	aea0 <xQueueSemaphoreTake+0x2a8>

0000b060 <vListInitialise>:
    b060:	e3e03000 	mvn	r3, #0
    b064:	e5803008 	str	r3, [r0, #8]
    b068:	e3a03000 	mov	r3, #0
    b06c:	e5803000 	str	r3, [r0]
    b070:	e2803008 	add	r3, r0, #8
    b074:	e5803004 	str	r3, [r0, #4]
    b078:	e580300c 	str	r3, [r0, #12]
    b07c:	e5803010 	str	r3, [r0, #16]
    b080:	e12fff1e 	bx	lr

0000b084 <vListInitialiseItem>:
    b084:	e3a03000 	mov	r3, #0
    b088:	e5803010 	str	r3, [r0, #16]
    b08c:	e12fff1e 	bx	lr

0000b090 <vListInsertEnd>:
    b090:	e5903004 	ldr	r3, [r0, #4]
    b094:	e5813004 	str	r3, [r1, #4]
    b098:	e5932008 	ldr	r2, [r3, #8]
    b09c:	e5812008 	str	r2, [r1, #8]
    b0a0:	e5932008 	ldr	r2, [r3, #8]
    b0a4:	e5821004 	str	r1, [r2, #4]
    b0a8:	e5831008 	str	r1, [r3, #8]
    b0ac:	e5810010 	str	r0, [r1, #16]
    b0b0:	e5903000 	ldr	r3, [r0]
    b0b4:	e2833001 	add	r3, r3, #1
    b0b8:	e5803000 	str	r3, [r0]
    b0bc:	e12fff1e 	bx	lr

0000b0c0 <vListInsert>:
    b0c0:	e52de004 	push	{lr}		; (str lr, [sp, #-4]!)
    b0c4:	e591e000 	ldr	lr, [r1]
    b0c8:	e37e0001 	cmn	lr, #1
    b0cc:	12802008 	addne	r2, r0, #8
    b0d0:	1a000001 	bne	b0dc <vListInsert+0x1c>
    b0d4:	ea00000d 	b	b110 <vListInsert+0x50>
    b0d8:	e1a02003 	mov	r2, r3
    b0dc:	e5923004 	ldr	r3, [r2, #4]
    b0e0:	e593c000 	ldr	ip, [r3]
    b0e4:	e15e000c 	cmp	lr, ip
    b0e8:	2afffffa 	bcs	b0d8 <vListInsert+0x18>
    b0ec:	e5813004 	str	r3, [r1, #4]
    b0f0:	e5831008 	str	r1, [r3, #8]
    b0f4:	e5812008 	str	r2, [r1, #8]
    b0f8:	e5821004 	str	r1, [r2, #4]
    b0fc:	e5810010 	str	r0, [r1, #16]
    b100:	e5903000 	ldr	r3, [r0]
    b104:	e2833001 	add	r3, r3, #1
    b108:	e5803000 	str	r3, [r0]
    b10c:	e49df004 	pop	{pc}		; (ldr pc, [sp], #4)
    b110:	e5902010 	ldr	r2, [r0, #16]
    b114:	e5923004 	ldr	r3, [r2, #4]
    b118:	eafffff3 	b	b0ec <vListInsert+0x2c>

0000b11c <uxListRemove>:
    b11c:	e5902004 	ldr	r2, [r0, #4]
    b120:	e5901008 	ldr	r1, [r0, #8]
    b124:	e5903010 	ldr	r3, [r0, #16]
    b128:	e5821008 	str	r1, [r2, #8]
    b12c:	e9900006 	ldmib	r0, {r1, r2}
    b130:	e5821004 	str	r1, [r2, #4]
    b134:	e5932004 	ldr	r2, [r3, #4]
    b138:	e1500002 	cmp	r0, r2
    b13c:	05902008 	ldreq	r2, [r0, #8]
    b140:	05832004 	streq	r2, [r3, #4]
    b144:	e3a02000 	mov	r2, #0
    b148:	e5802010 	str	r2, [r0, #16]
    b14c:	e5932000 	ldr	r2, [r3]
    b150:	e2422001 	sub	r2, r2, #1
    b154:	e5832000 	str	r2, [r3]
    b158:	e5930000 	ldr	r0, [r3]
    b15c:	e12fff1e 	bx	lr

0000b160 <prvIdleTask>:
    b160:	e92d4010 	push	{r4, lr}
    b164:	e3014238 	movw	r4, #4664	; 0x1238
    b168:	e3404002 	movt	r4, #2
    b16c:	e5943000 	ldr	r3, [r4]
    b170:	e3530000 	cmp	r3, #0
    b174:	0afffffc 	beq	b16c <prvIdleTask+0xc>
    b178:	eb000519 	bl	c5e4 <vPortEnterCritical>
    b17c:	e5943010 	ldr	r3, [r4, #16]
    b180:	e593500c 	ldr	r5, [r3, #12]
    b184:	e2850004 	add	r0, r5, #4
    b188:	ebffffe3 	bl	b11c <uxListRemove>
    b18c:	e5943018 	ldr	r3, [r4, #24]
    b190:	e2433001 	sub	r3, r3, #1
    b194:	e5843018 	str	r3, [r4, #24]
    b198:	e5943000 	ldr	r3, [r4]
    b19c:	e2433001 	sub	r3, r3, #1
    b1a0:	e5843000 	str	r3, [r4]
    b1a4:	eb000519 	bl	c610 <vPortExitCritical>
    b1a8:	e5950030 	ldr	r0, [r5, #48]	; 0x30
    b1ac:	eb000bcc 	bl	e0e4 <vPortFree>
    b1b0:	e1a00005 	mov	r0, r5
    b1b4:	eb000bca 	bl	e0e4 <vPortFree>
    b1b8:	e5943000 	ldr	r3, [r4]
    b1bc:	e3530000 	cmp	r3, #0
    b1c0:	1affffec 	bne	b178 <prvIdleTask+0x18>
    b1c4:	eaffffe8 	b	b16c <prvIdleTask+0xc>

0000b1c8 <xLoadPercentCPU>:
    b1c8:	e3013238 	movw	r3, #4664	; 0x1238
    b1cc:	e3e00063 	mvn	r0, #99	; 0x63
    b1d0:	e3403002 	movt	r3, #2
    b1d4:	e3042dd3 	movw	r2, #19923	; 0x4dd3
    b1d8:	e3412062 	movt	r2, #4194	; 0x1062
    b1dc:	e593301c 	ldr	r3, [r3, #28]
    b1e0:	e0000390 	mul	r0, r0, r3
    b1e4:	e2800b61 	add	r0, r0, #99328	; 0x18400
    b1e8:	e2800e2a 	add	r0, r0, #672	; 0x2a0
    b1ec:	e0803092 	umull	r3, r0, r2, r0
    b1f0:	e1a00320 	lsr	r0, r0, #6
    b1f4:	e12fff1e 	bx	lr

0000b1f8 <xTaskCreate>:
    b1f8:	e92d4ff8 	push	{r3, r4, r5, r6, r7, r8, r9, sl, fp, lr}
    b1fc:	e1a09000 	mov	r9, r0
    b200:	e1a0b102 	lsl	fp, r2, #2
    b204:	e1a05001 	mov	r5, r1
    b208:	e59d6028 	ldr	r6, [sp, #40]	; 0x28
    b20c:	e1a0000b 	mov	r0, fp
    b210:	e1a0a003 	mov	sl, r3
    b214:	eb000b38 	bl	defc <pvPortMalloc>
    b218:	e2507000 	subs	r7, r0, #0
    b21c:	0a00009d 	beq	b498 <xTaskCreate+0x2a0>
    b220:	e3a00060 	mov	r0, #96	; 0x60
    b224:	eb000b34 	bl	defc <pvPortMalloc>
    b228:	e2504000 	subs	r4, r0, #0
    b22c:	0a0000ba 	beq	b51c <xTaskCreate+0x324>
    b230:	e5847030 	str	r7, [r4, #48]	; 0x30
    b234:	e1a0200b 	mov	r2, fp
    b238:	e1a00007 	mov	r0, r7
    b23c:	e3a010a5 	mov	r1, #165	; 0xa5
    b240:	e24bb004 	sub	fp, fp, #4
    b244:	fa000c16 	blx	e2a4 <memset>
    b248:	e5d52000 	ldrb	r2, [r5]
    b24c:	e5943030 	ldr	r3, [r4, #48]	; 0x30
    b250:	e5c42034 	strb	r2, [r4, #52]	; 0x34
    b254:	e5d52000 	ldrb	r2, [r5]
    b258:	e083b00b 	add	fp, r3, fp
    b25c:	e3cbb007 	bic	fp, fp, #7
    b260:	e3520000 	cmp	r2, #0
    b264:	0a000041 	beq	b370 <xTaskCreate+0x178>
    b268:	e5d53001 	ldrb	r3, [r5, #1]
    b26c:	e5c43035 	strb	r3, [r4, #53]	; 0x35
    b270:	e5d53001 	ldrb	r3, [r5, #1]
    b274:	e3530000 	cmp	r3, #0
    b278:	0a00003c 	beq	b370 <xTaskCreate+0x178>
    b27c:	e5d53002 	ldrb	r3, [r5, #2]
    b280:	e5c43036 	strb	r3, [r4, #54]	; 0x36
    b284:	e5d53002 	ldrb	r3, [r5, #2]
    b288:	e3530000 	cmp	r3, #0
    b28c:	0a000037 	beq	b370 <xTaskCreate+0x178>
    b290:	e5d53003 	ldrb	r3, [r5, #3]
    b294:	e5c43037 	strb	r3, [r4, #55]	; 0x37
    b298:	e5d53003 	ldrb	r3, [r5, #3]
    b29c:	e3530000 	cmp	r3, #0
    b2a0:	0a000032 	beq	b370 <xTaskCreate+0x178>
    b2a4:	e5d53004 	ldrb	r3, [r5, #4]
    b2a8:	e5c43038 	strb	r3, [r4, #56]	; 0x38
    b2ac:	e5d53004 	ldrb	r3, [r5, #4]
    b2b0:	e3530000 	cmp	r3, #0
    b2b4:	0a00002d 	beq	b370 <xTaskCreate+0x178>
    b2b8:	e5d53005 	ldrb	r3, [r5, #5]
    b2bc:	e5c43039 	strb	r3, [r4, #57]	; 0x39
    b2c0:	e5d53005 	ldrb	r3, [r5, #5]
    b2c4:	e3530000 	cmp	r3, #0
    b2c8:	0a000028 	beq	b370 <xTaskCreate+0x178>
    b2cc:	e5d53006 	ldrb	r3, [r5, #6]
    b2d0:	e5c4303a 	strb	r3, [r4, #58]	; 0x3a
    b2d4:	e5d53006 	ldrb	r3, [r5, #6]
    b2d8:	e3530000 	cmp	r3, #0
    b2dc:	0a000023 	beq	b370 <xTaskCreate+0x178>
    b2e0:	e5d53007 	ldrb	r3, [r5, #7]
    b2e4:	e5c4303b 	strb	r3, [r4, #59]	; 0x3b
    b2e8:	e5d53007 	ldrb	r3, [r5, #7]
    b2ec:	e3530000 	cmp	r3, #0
    b2f0:	0a00001e 	beq	b370 <xTaskCreate+0x178>
    b2f4:	e5d53008 	ldrb	r3, [r5, #8]
    b2f8:	e5c4303c 	strb	r3, [r4, #60]	; 0x3c
    b2fc:	e5d53008 	ldrb	r3, [r5, #8]
    b300:	e3530000 	cmp	r3, #0
    b304:	0a000019 	beq	b370 <xTaskCreate+0x178>
    b308:	e5d53009 	ldrb	r3, [r5, #9]
    b30c:	e5c4303d 	strb	r3, [r4, #61]	; 0x3d
    b310:	e5d53009 	ldrb	r3, [r5, #9]
    b314:	e3530000 	cmp	r3, #0
    b318:	0a000014 	beq	b370 <xTaskCreate+0x178>
    b31c:	e5d5300a 	ldrb	r3, [r5, #10]
    b320:	e5c4303e 	strb	r3, [r4, #62]	; 0x3e
    b324:	e5d5300a 	ldrb	r3, [r5, #10]
    b328:	e3530000 	cmp	r3, #0
    b32c:	0a00000f 	beq	b370 <xTaskCreate+0x178>
    b330:	e5d5300b 	ldrb	r3, [r5, #11]
    b334:	e5c4303f 	strb	r3, [r4, #63]	; 0x3f
    b338:	e5d5300b 	ldrb	r3, [r5, #11]
    b33c:	e3530000 	cmp	r3, #0
    b340:	0a00000a 	beq	b370 <xTaskCreate+0x178>
    b344:	e5d5300c 	ldrb	r3, [r5, #12]
    b348:	e5c43040 	strb	r3, [r4, #64]	; 0x40
    b34c:	e5d5300c 	ldrb	r3, [r5, #12]
    b350:	e3530000 	cmp	r3, #0
    b354:	0a000005 	beq	b370 <xTaskCreate+0x178>
    b358:	e5d5300d 	ldrb	r3, [r5, #13]
    b35c:	e5c43041 	strb	r3, [r4, #65]	; 0x41
    b360:	e5d5300d 	ldrb	r3, [r5, #13]
    b364:	e3530000 	cmp	r3, #0
    b368:	15d5300e 	ldrbne	r3, [r5, #14]
    b36c:	15c43042 	strbne	r3, [r4, #66]	; 0x42
    b370:	e3560004 	cmp	r6, #4
    b374:	e3a08000 	mov	r8, #0
    b378:	e5c48043 	strb	r8, [r4, #67]	; 0x43
    b37c:	31a05006 	movcc	r5, r6
    b380:	e5848050 	str	r8, [r4, #80]	; 0x50
    b384:	23a05004 	movcs	r5, #4
    b388:	e584502c 	str	r5, [r4, #44]	; 0x2c
    b38c:	e2847004 	add	r7, r4, #4
    b390:	e584504c 	str	r5, [r4, #76]	; 0x4c
    b394:	e1a00007 	mov	r0, r7
    b398:	e2655005 	rsb	r5, r5, #5
    b39c:	ebffff38 	bl	b084 <vListInitialiseItem>
    b3a0:	e2840018 	add	r0, r4, #24
    b3a4:	ebffff36 	bl	b084 <vListInitialiseItem>
    b3a8:	e5848058 	str	r8, [r4, #88]	; 0x58
    b3ac:	e1a0200a 	mov	r2, sl
    b3b0:	e5845018 	str	r5, [r4, #24]
    b3b4:	e1a01009 	mov	r1, r9
    b3b8:	e5848054 	str	r8, [r4, #84]	; 0x54
    b3bc:	e1a0000b 	mov	r0, fp
    b3c0:	e5c4805c 	strb	r8, [r4, #92]	; 0x5c
    b3c4:	e3015238 	movw	r5, #4664	; 0x1238
    b3c8:	e5844010 	str	r4, [r4, #16]
    b3cc:	e5844024 	str	r4, [r4, #36]	; 0x24
    b3d0:	e3405002 	movt	r5, #2
    b3d4:	eb000440 	bl	c4dc <pxPortInitialiseStack>
    b3d8:	e59d302c 	ldr	r3, [sp, #44]	; 0x2c
    b3dc:	e5840000 	str	r0, [r4]
    b3e0:	e1530008 	cmp	r3, r8
    b3e4:	15834000 	strne	r4, [r3]
    b3e8:	eb00047d 	bl	c5e4 <vPortEnterCritical>
    b3ec:	e5953018 	ldr	r3, [r5, #24]
    b3f0:	e2833001 	add	r3, r3, #1
    b3f4:	e5853018 	str	r3, [r5, #24]
    b3f8:	e5953020 	ldr	r3, [r5, #32]
    b3fc:	e3530000 	cmp	r3, #0
    b400:	0a000026 	beq	b4a0 <xTaskCreate+0x2a8>
    b404:	e59530e0 	ldr	r3, [r5, #224]	; 0xe0
    b408:	e3530000 	cmp	r3, #0
    b40c:	0a00001a 	beq	b47c <xTaskCreate+0x284>
    b410:	e594202c 	ldr	r2, [r4, #44]	; 0x2c
    b414:	e2856024 	add	r6, r5, #36	; 0x24
    b418:	e59530e4 	ldr	r3, [r5, #228]	; 0xe4
    b41c:	e3a00014 	mov	r0, #20
    b420:	e59510e8 	ldr	r1, [r5, #232]	; 0xe8
    b424:	e2833001 	add	r3, r3, #1
    b428:	e1510002 	cmp	r1, r2
    b42c:	e1a01007 	mov	r1, r7
    b430:	e5843044 	str	r3, [r4, #68]	; 0x44
    b434:	e0206290 	mla	r0, r0, r2, r6
    b438:	e58530e4 	str	r3, [r5, #228]	; 0xe4
    b43c:	358520e8 	strcc	r2, [r5, #232]	; 0xe8
    b440:	ebffff12 	bl	b090 <vListInsertEnd>
    b444:	eb000471 	bl	c610 <vPortExitCritical>
    b448:	e59530e0 	ldr	r3, [r5, #224]	; 0xe0
    b44c:	e3530000 	cmp	r3, #0
    b450:	0a000007 	beq	b474 <xTaskCreate+0x27c>
    b454:	e5952020 	ldr	r2, [r5, #32]
    b458:	e594302c 	ldr	r3, [r4, #44]	; 0x2c
    b45c:	e592202c 	ldr	r2, [r2, #44]	; 0x2c
    b460:	e1520003 	cmp	r2, r3
    b464:	2a000002 	bcs	b474 <xTaskCreate+0x27c>
    b468:	ef000000 	svc	0x00000000
    b46c:	e3a00001 	mov	r0, #1
    b470:	e8bd8ff8 	pop	{r3, r4, r5, r6, r7, r8, r9, sl, fp, pc}
    b474:	e3a00001 	mov	r0, #1
    b478:	e8bd8ff8 	pop	{r3, r4, r5, r6, r7, r8, r9, sl, fp, pc}
    b47c:	e5953020 	ldr	r3, [r5, #32]
    b480:	e2856024 	add	r6, r5, #36	; 0x24
    b484:	e594202c 	ldr	r2, [r4, #44]	; 0x2c
    b488:	e593302c 	ldr	r3, [r3, #44]	; 0x2c
    b48c:	e1530002 	cmp	r3, r2
    b490:	95854020 	strls	r4, [r5, #32]
    b494:	eaffffdf 	b	b418 <xTaskCreate+0x220>
    b498:	e3e00000 	mvn	r0, #0
    b49c:	e8bd8ff8 	pop	{r3, r4, r5, r6, r7, r8, r9, sl, fp, pc}
    b4a0:	e5854020 	str	r4, [r5, #32]
    b4a4:	e5953018 	ldr	r3, [r5, #24]
    b4a8:	e3530001 	cmp	r3, #1
    b4ac:	1affffd7 	bne	b410 <xTaskCreate+0x218>
    b4b0:	e2856024 	add	r6, r5, #36	; 0x24
    b4b4:	e2859088 	add	r9, r5, #136	; 0x88
    b4b8:	e1a00006 	mov	r0, r6
    b4bc:	e285809c 	add	r8, r5, #156	; 0x9c
    b4c0:	ebfffee6 	bl	b060 <vListInitialise>
    b4c4:	e2850038 	add	r0, r5, #56	; 0x38
    b4c8:	ebfffee4 	bl	b060 <vListInitialise>
    b4cc:	e285004c 	add	r0, r5, #76	; 0x4c
    b4d0:	ebfffee2 	bl	b060 <vListInitialise>
    b4d4:	e2850060 	add	r0, r5, #96	; 0x60
    b4d8:	ebfffee0 	bl	b060 <vListInitialise>
    b4dc:	e2850074 	add	r0, r5, #116	; 0x74
    b4e0:	ebfffede 	bl	b060 <vListInitialise>
    b4e4:	e1a00009 	mov	r0, r9
    b4e8:	ebfffedc 	bl	b060 <vListInitialise>
    b4ec:	e1a00008 	mov	r0, r8
    b4f0:	ebfffeda 	bl	b060 <vListInitialise>
    b4f4:	e28500b0 	add	r0, r5, #176	; 0xb0
    b4f8:	ebfffed8 	bl	b060 <vListInitialise>
    b4fc:	e2850004 	add	r0, r5, #4
    b500:	ebfffed6 	bl	b060 <vListInitialise>
    b504:	e28500c4 	add	r0, r5, #196	; 0xc4
    b508:	ebfffed4 	bl	b060 <vListInitialise>
    b50c:	e58590d8 	str	r9, [r5, #216]	; 0xd8
    b510:	e594202c 	ldr	r2, [r4, #44]	; 0x2c
    b514:	e58580dc 	str	r8, [r5, #220]	; 0xdc
    b518:	eaffffbe 	b	b418 <xTaskCreate+0x220>
    b51c:	e1a00007 	mov	r0, r7
    b520:	eb000aef 	bl	e0e4 <vPortFree>
    b524:	e3e00000 	mvn	r0, #0
    b528:	e8bd8ff8 	pop	{r3, r4, r5, r6, r7, r8, r9, sl, fp, pc}

0000b52c <vTaskStartScheduler>:
    b52c:	e92d4030 	push	{r4, r5, lr}
    b530:	e3014238 	movw	r4, #4664	; 0x1238
    b534:	e3404002 	movt	r4, #2
    b538:	e24dd00c 	sub	sp, sp, #12
    b53c:	e3a05000 	mov	r5, #0
    b540:	e28430f8 	add	r3, r4, #248	; 0xf8
    b544:	e58d3004 	str	r3, [sp, #4]
    b548:	e30f1498 	movw	r1, #62616	; 0xf498
    b54c:	e58d5000 	str	r5, [sp]
    b550:	e30b0160 	movw	r0, #45408	; 0xb160
    b554:	e3401000 	movt	r1, #0
    b558:	e1a03005 	mov	r3, r5
    b55c:	e3400000 	movt	r0, #0
    b560:	e3a02c02 	mov	r2, #512	; 0x200
    b564:	ebffff23 	bl	b1f8 <xTaskCreate>
    b568:	e3500001 	cmp	r0, #1
    b56c:	0a000001 	beq	b578 <vTaskStartScheduler+0x4c>
    b570:	e28dd00c 	add	sp, sp, #12
    b574:	e8bd8030 	pop	{r4, r5, pc}
    b578:	e92d0001 	stmfd	sp!, {r0}
    b57c:	e10f0000 	mrs	r0, CPSR
    b580:	e38000c0 	orr	r0, r0, #192	; 0xc0
    b584:	e129f000 	msr	CPSR_fc, r0
    b588:	e8bd0001 	ldmfd	sp!, {r0}
    b58c:	e3e03000 	mvn	r3, #0
    b590:	e58430ec 	str	r3, [r4, #236]	; 0xec
    b594:	e58400e0 	str	r0, [r4, #224]	; 0xe0
    b598:	e58450fc 	str	r5, [r4, #252]	; 0xfc
    b59c:	e28dd00c 	add	sp, sp, #12
    b5a0:	e8bd4030 	pop	{r4, r5, lr}
    b5a4:	ea0003ff 	b	c5a8 <xPortStartScheduler>

0000b5a8 <vTaskSuspendAll>:
    b5a8:	e3013238 	movw	r3, #4664	; 0x1238
    b5ac:	e3403002 	movt	r3, #2
    b5b0:	e59320f0 	ldr	r2, [r3, #240]	; 0xf0
    b5b4:	e2822001 	add	r2, r2, #1
    b5b8:	e58320f0 	str	r2, [r3, #240]	; 0xf0
    b5bc:	e12fff1e 	bx	lr

0000b5c0 <xTaskIncrementTick>:
    b5c0:	e92d47f0 	push	{r4, r5, r6, r7, r8, r9, sl, lr}
    b5c4:	e3014238 	movw	r4, #4664	; 0x1238
    b5c8:	e3404002 	movt	r4, #2
    b5cc:	e59430f0 	ldr	r3, [r4, #240]	; 0xf0
    b5d0:	e3530000 	cmp	r3, #0
    b5d4:	1a000058 	bne	b73c <xTaskIncrementTick+0x17c>
    b5d8:	e5942020 	ldr	r2, [r4, #32]
    b5dc:	e59430f8 	ldr	r3, [r4, #248]	; 0xf8
    b5e0:	e1520003 	cmp	r2, r3
    b5e4:	05943100 	ldreq	r3, [r4, #256]	; 0x100
    b5e8:	02833001 	addeq	r3, r3, #1
    b5ec:	05843100 	streq	r3, [r4, #256]	; 0x100
    b5f0:	e5943104 	ldr	r3, [r4, #260]	; 0x104
    b5f4:	e3530ffa 	cmp	r3, #1000	; 0x3e8
    b5f8:	23a03000 	movcs	r3, #0
    b5fc:	35943104 	ldrcc	r3, [r4, #260]	; 0x104
    b600:	25843104 	strcs	r3, [r4, #260]	; 0x104
    b604:	25942100 	ldrcs	r2, [r4, #256]	; 0x100
    b608:	32833001 	addcc	r3, r3, #1
    b60c:	35843104 	strcc	r3, [r4, #260]	; 0x104
    b610:	2584201c 	strcs	r2, [r4, #28]
    b614:	25843100 	strcs	r3, [r4, #256]	; 0x100
    b618:	e59480fc 	ldr	r8, [r4, #252]	; 0xfc
    b61c:	e2888001 	add	r8, r8, #1
    b620:	e58480fc 	str	r8, [r4, #252]	; 0xfc
    b624:	e3580000 	cmp	r8, #0
    b628:	1a00000f 	bne	b66c <xTaskIncrementTick+0xac>
    b62c:	e59430d8 	ldr	r3, [r4, #216]	; 0xd8
    b630:	e59420dc 	ldr	r2, [r4, #220]	; 0xdc
    b634:	e58420d8 	str	r2, [r4, #216]	; 0xd8
    b638:	e58430dc 	str	r3, [r4, #220]	; 0xdc
    b63c:	e5943108 	ldr	r3, [r4, #264]	; 0x108
    b640:	e2833001 	add	r3, r3, #1
    b644:	e5843108 	str	r3, [r4, #264]	; 0x108
    b648:	e59430d8 	ldr	r3, [r4, #216]	; 0xd8
    b64c:	e5933000 	ldr	r3, [r3]
    b650:	e3530000 	cmp	r3, #0
    b654:	03e03000 	mvneq	r3, #0
    b658:	159430d8 	ldrne	r3, [r4, #216]	; 0xd8
    b65c:	1593300c 	ldrne	r3, [r3, #12]
    b660:	1593300c 	ldrne	r3, [r3, #12]
    b664:	15933004 	ldrne	r3, [r3, #4]
    b668:	e58430ec 	str	r3, [r4, #236]	; 0xec
    b66c:	e59430ec 	ldr	r3, [r4, #236]	; 0xec
    b670:	e1580003 	cmp	r8, r3
    b674:	33a06000 	movcc	r6, #0
    b678:	3a000023 	bcc	b70c <xTaskIncrementTick+0x14c>
    b67c:	e59fa0d4 	ldr	sl, [pc, #212]	; b758 <xTaskIncrementTick+0x198>
    b680:	e3a06000 	mov	r6, #0
    b684:	e3a09014 	mov	r9, #20
    b688:	ea000019 	b	b6f4 <xTaskIncrementTick+0x134>
    b68c:	e59430d8 	ldr	r3, [r4, #216]	; 0xd8
    b690:	e593300c 	ldr	r3, [r3, #12]
    b694:	e593500c 	ldr	r5, [r3, #12]
    b698:	e5953004 	ldr	r3, [r5, #4]
    b69c:	e2857004 	add	r7, r5, #4
    b6a0:	e1a00007 	mov	r0, r7
    b6a4:	e1580003 	cmp	r8, r3
    b6a8:	3a000028 	bcc	b750 <xTaskIncrementTick+0x190>
    b6ac:	ebfffe9a 	bl	b11c <uxListRemove>
    b6b0:	e5953028 	ldr	r3, [r5, #40]	; 0x28
    b6b4:	e2850018 	add	r0, r5, #24
    b6b8:	e3530000 	cmp	r3, #0
    b6bc:	0a000000 	beq	b6c4 <xTaskIncrementTick+0x104>
    b6c0:	ebfffe95 	bl	b11c <uxListRemove>
    b6c4:	e595302c 	ldr	r3, [r5, #44]	; 0x2c
    b6c8:	e1a01007 	mov	r1, r7
    b6cc:	e59420e8 	ldr	r2, [r4, #232]	; 0xe8
    b6d0:	e020a399 	mla	r0, r9, r3, sl
    b6d4:	e1530002 	cmp	r3, r2
    b6d8:	858430e8 	strhi	r3, [r4, #232]	; 0xe8
    b6dc:	ebfffe6b 	bl	b090 <vListInsertEnd>
    b6e0:	e5943020 	ldr	r3, [r4, #32]
    b6e4:	e595202c 	ldr	r2, [r5, #44]	; 0x2c
    b6e8:	e593302c 	ldr	r3, [r3, #44]	; 0x2c
    b6ec:	e1520003 	cmp	r2, r3
    b6f0:	23a06001 	movcs	r6, #1
    b6f4:	e59430d8 	ldr	r3, [r4, #216]	; 0xd8
    b6f8:	e5933000 	ldr	r3, [r3]
    b6fc:	e3530000 	cmp	r3, #0
    b700:	1affffe1 	bne	b68c <xTaskIncrementTick+0xcc>
    b704:	e3e03000 	mvn	r3, #0
    b708:	e58430ec 	str	r3, [r4, #236]	; 0xec
    b70c:	e5943020 	ldr	r3, [r4, #32]
    b710:	e3a02014 	mov	r2, #20
    b714:	e593302c 	ldr	r3, [r3, #44]	; 0x2c
    b718:	e0234392 	mla	r3, r2, r3, r4
    b71c:	e5933024 	ldr	r3, [r3, #36]	; 0x24
    b720:	e3530002 	cmp	r3, #2
    b724:	23a06001 	movcs	r6, #1
    b728:	e59430f4 	ldr	r3, [r4, #244]	; 0xf4
    b72c:	e3530000 	cmp	r3, #0
    b730:	01a00006 	moveq	r0, r6
    b734:	13a00001 	movne	r0, #1
    b738:	e8bd87f0 	pop	{r4, r5, r6, r7, r8, r9, sl, pc}
    b73c:	e594310c 	ldr	r3, [r4, #268]	; 0x10c
    b740:	e3a06000 	mov	r6, #0
    b744:	e2833001 	add	r3, r3, #1
    b748:	e584310c 	str	r3, [r4, #268]	; 0x10c
    b74c:	eafffff5 	b	b728 <xTaskIncrementTick+0x168>
    b750:	e58430ec 	str	r3, [r4, #236]	; 0xec
    b754:	eaffffec 	b	b70c <xTaskIncrementTick+0x14c>
    b758:	0002125c 	.word	0x0002125c

0000b75c <xTaskResumeAll>:
    b75c:	e92d47f0 	push	{r4, r5, r6, r7, r8, r9, sl, lr}
    b760:	e3014238 	movw	r4, #4664	; 0x1238
    b764:	e3404002 	movt	r4, #2
    b768:	eb00039d 	bl	c5e4 <vPortEnterCritical>
    b76c:	e59430f0 	ldr	r3, [r4, #240]	; 0xf0
    b770:	e2433001 	sub	r3, r3, #1
    b774:	e58430f0 	str	r3, [r4, #240]	; 0xf0
    b778:	e59450f0 	ldr	r5, [r4, #240]	; 0xf0
    b77c:	e3550000 	cmp	r5, #0
    b780:	1a000037 	bne	b864 <xTaskResumeAll+0x108>
    b784:	e5943018 	ldr	r3, [r4, #24]
    b788:	e3530000 	cmp	r3, #0
    b78c:	0a000034 	beq	b864 <xTaskResumeAll+0x108>
    b790:	e2848024 	add	r8, r4, #36	; 0x24
    b794:	e3a07014 	mov	r7, #20
    b798:	e3a09001 	mov	r9, #1
    b79c:	ea000012 	b	b7ec <xTaskResumeAll+0x90>
    b7a0:	e59430bc 	ldr	r3, [r4, #188]	; 0xbc
    b7a4:	e593500c 	ldr	r5, [r3, #12]
    b7a8:	e2856004 	add	r6, r5, #4
    b7ac:	e2850018 	add	r0, r5, #24
    b7b0:	ebfffe59 	bl	b11c <uxListRemove>
    b7b4:	e1a00006 	mov	r0, r6
    b7b8:	ebfffe57 	bl	b11c <uxListRemove>
    b7bc:	e595302c 	ldr	r3, [r5, #44]	; 0x2c
    b7c0:	e1a01006 	mov	r1, r6
    b7c4:	e59420e8 	ldr	r2, [r4, #232]	; 0xe8
    b7c8:	e0208397 	mla	r0, r7, r3, r8
    b7cc:	e1530002 	cmp	r3, r2
    b7d0:	858430e8 	strhi	r3, [r4, #232]	; 0xe8
    b7d4:	ebfffe2d 	bl	b090 <vListInsertEnd>
    b7d8:	e5943020 	ldr	r3, [r4, #32]
    b7dc:	e595202c 	ldr	r2, [r5, #44]	; 0x2c
    b7e0:	e593302c 	ldr	r3, [r3, #44]	; 0x2c
    b7e4:	e1520003 	cmp	r2, r3
    b7e8:	258490f4 	strcs	r9, [r4, #244]	; 0xf4
    b7ec:	e59430b0 	ldr	r3, [r4, #176]	; 0xb0
    b7f0:	e3530000 	cmp	r3, #0
    b7f4:	1affffe9 	bne	b7a0 <xTaskResumeAll+0x44>
    b7f8:	e3550000 	cmp	r5, #0
    b7fc:	0a000008 	beq	b824 <xTaskResumeAll+0xc8>
    b800:	e59430d8 	ldr	r3, [r4, #216]	; 0xd8
    b804:	e5933000 	ldr	r3, [r3]
    b808:	e3530000 	cmp	r3, #0
    b80c:	03e03000 	mvneq	r3, #0
    b810:	159430d8 	ldrne	r3, [r4, #216]	; 0xd8
    b814:	1593300c 	ldrne	r3, [r3, #12]
    b818:	1593300c 	ldrne	r3, [r3, #12]
    b81c:	15933004 	ldrne	r3, [r3, #4]
    b820:	e58430ec 	str	r3, [r4, #236]	; 0xec
    b824:	e594510c 	ldr	r5, [r4, #268]	; 0x10c
    b828:	e3550000 	cmp	r5, #0
    b82c:	0a000006 	beq	b84c <xTaskResumeAll+0xf0>
    b830:	e3a06001 	mov	r6, #1
    b834:	ebffff61 	bl	b5c0 <xTaskIncrementTick>
    b838:	e3500000 	cmp	r0, #0
    b83c:	158460f4 	strne	r6, [r4, #244]	; 0xf4
    b840:	e2555001 	subs	r5, r5, #1
    b844:	1afffffa 	bne	b834 <xTaskResumeAll+0xd8>
    b848:	e584510c 	str	r5, [r4, #268]	; 0x10c
    b84c:	e59430f4 	ldr	r3, [r4, #244]	; 0xf4
    b850:	e3530000 	cmp	r3, #0
    b854:	0a000002 	beq	b864 <xTaskResumeAll+0x108>
    b858:	ef000000 	svc	0x00000000
    b85c:	e3a04001 	mov	r4, #1
    b860:	ea000000 	b	b868 <xTaskResumeAll+0x10c>
    b864:	e3a04000 	mov	r4, #0
    b868:	eb000368 	bl	c610 <vPortExitCritical>
    b86c:	e1a00004 	mov	r0, r4
    b870:	e8bd87f0 	pop	{r4, r5, r6, r7, r8, r9, sl, pc}

0000b874 <vTaskDelay>:
    b874:	e3500000 	cmp	r0, #0
    b878:	1a000001 	bne	b884 <vTaskDelay+0x10>
    b87c:	ef000000 	svc	0x00000000
    b880:	e12fff1e 	bx	lr
    b884:	e92d4070 	push	{r4, r5, r6, lr}
    b888:	e3014238 	movw	r4, #4664	; 0x1238
    b88c:	e3404002 	movt	r4, #2
    b890:	e59430f0 	ldr	r3, [r4, #240]	; 0xf0
    b894:	e2833001 	add	r3, r3, #1
    b898:	e58430f0 	str	r3, [r4, #240]	; 0xf0
    b89c:	e59460fc 	ldr	r6, [r4, #252]	; 0xfc
    b8a0:	e5943020 	ldr	r3, [r4, #32]
    b8a4:	e0805006 	add	r5, r0, r6
    b8a8:	e2830004 	add	r0, r3, #4
    b8ac:	ebfffe1a 	bl	b11c <uxListRemove>
    b8b0:	e5943020 	ldr	r3, [r4, #32]
    b8b4:	e1560005 	cmp	r6, r5
    b8b8:	e5835004 	str	r5, [r3, #4]
    b8bc:	8a00000a 	bhi	b8ec <vTaskDelay+0x78>
    b8c0:	e59400d8 	ldr	r0, [r4, #216]	; 0xd8
    b8c4:	e5941020 	ldr	r1, [r4, #32]
    b8c8:	e2811004 	add	r1, r1, #4
    b8cc:	ebfffdfb 	bl	b0c0 <vListInsert>
    b8d0:	e59430ec 	ldr	r3, [r4, #236]	; 0xec
    b8d4:	e1550003 	cmp	r5, r3
    b8d8:	358450ec 	strcc	r5, [r4, #236]	; 0xec
    b8dc:	ebffff9e 	bl	b75c <xTaskResumeAll>
    b8e0:	e3500000 	cmp	r0, #0
    b8e4:	0a000005 	beq	b900 <vTaskDelay+0x8c>
    b8e8:	e8bd8070 	pop	{r4, r5, r6, pc}
    b8ec:	e59400dc 	ldr	r0, [r4, #220]	; 0xdc
    b8f0:	e5941020 	ldr	r1, [r4, #32]
    b8f4:	e2811004 	add	r1, r1, #4
    b8f8:	ebfffdf0 	bl	b0c0 <vListInsert>
    b8fc:	eafffff6 	b	b8dc <vTaskDelay+0x68>
    b900:	ef000000 	svc	0x00000000
    b904:	e8bd8070 	pop	{r4, r5, r6, pc}

0000b908 <uxTaskGetSystemState>:
    b908:	e92d4ff0 	push	{r4, r5, r6, r7, r8, r9, sl, fp, lr}
    b90c:	e3014238 	movw	r4, #4664	; 0x1238
    b910:	e3404002 	movt	r4, #2
    b914:	e24dd014 	sub	sp, sp, #20
    b918:	e59430f0 	ldr	r3, [r4, #240]	; 0xf0
    b91c:	e58d0004 	str	r0, [sp, #4]
    b920:	e58d2008 	str	r2, [sp, #8]
    b924:	e2833001 	add	r3, r3, #1
    b928:	e58430f0 	str	r3, [r4, #240]	; 0xf0
    b92c:	e5943018 	ldr	r3, [r4, #24]
    b930:	e1530001 	cmp	r3, r1
    b934:	83a05000 	movhi	r5, #0
    b938:	8a000028 	bhi	b9e0 <uxTaskGetSystemState+0xd8>
    b93c:	e3a08000 	mov	r8, #0
    b940:	e284e07c 	add	lr, r4, #124	; 0x7c
    b944:	e1a0a008 	mov	sl, r8
    b948:	e3a05005 	mov	r5, #5
    b94c:	e3a0b014 	mov	fp, #20
    b950:	e2455001 	sub	r5, r5, #1
    b954:	e023459b 	mla	r3, fp, r5, r4
    b958:	e5937024 	ldr	r7, [r3, #36]	; 0x24
    b95c:	e3570000 	cmp	r7, #0
    b960:	1a000022 	bne	b9f0 <uxTaskGetSystemState+0xe8>
    b964:	e0888007 	add	r8, r8, r7
    b968:	e3550000 	cmp	r5, #0
    b96c:	e24ee014 	sub	lr, lr, #20
    b970:	1afffff6 	bne	b950 <uxTaskGetSystemState+0x48>
    b974:	e59460d8 	ldr	r6, [r4, #216]	; 0xd8
    b978:	e5963000 	ldr	r3, [r6]
    b97c:	e3530000 	cmp	r3, #0
    b980:	01a09005 	moveq	r9, r5
    b984:	1a000091 	bne	bbd0 <uxTaskGetSystemState+0x2c8>
    b988:	e59470dc 	ldr	r7, [r4, #220]	; 0xdc
    b98c:	e0888009 	add	r8, r8, r9
    b990:	e5976000 	ldr	r6, [r7]
    b994:	e3560000 	cmp	r6, #0
    b998:	1a0000c4 	bne	bcb0 <uxTaskGetSystemState+0x3a8>
    b99c:	e5943004 	ldr	r3, [r4, #4]
    b9a0:	e0888006 	add	r8, r8, r6
    b9a4:	e3530000 	cmp	r3, #0
    b9a8:	01a06003 	moveq	r6, r3
    b9ac:	1a0000f7 	bne	bd90 <uxTaskGetSystemState+0x488>
    b9b0:	e59430c4 	ldr	r3, [r4, #196]	; 0xc4
    b9b4:	e0882006 	add	r2, r8, r6
    b9b8:	e58d200c 	str	r2, [sp, #12]
    b9bc:	e3530000 	cmp	r3, #0
    b9c0:	1a000041 	bne	bacc <uxTaskGetSystemState+0x1c4>
    b9c4:	e59d2008 	ldr	r2, [sp, #8]
    b9c8:	e59d300c 	ldr	r3, [sp, #12]
    b9cc:	e3520000 	cmp	r2, #0
    b9d0:	e0835005 	add	r5, r3, r5
    b9d4:	e1a03002 	mov	r3, r2
    b9d8:	13a03000 	movne	r3, #0
    b9dc:	15823000 	strne	r3, [r2]
    b9e0:	ebffff5d 	bl	b75c <xTaskResumeAll>
    b9e4:	e1a00005 	mov	r0, r5
    b9e8:	e28dd014 	add	sp, sp, #20
    b9ec:	e8bd8ff0 	pop	{r4, r5, r6, r7, r8, r9, sl, fp, pc}
    b9f0:	e51e3004 	ldr	r3, [lr, #-4]
    b9f4:	e3a02024 	mov	r2, #36	; 0x24
    b9f8:	e59d1004 	ldr	r1, [sp, #4]
    b9fc:	e3a07000 	mov	r7, #0
    ba00:	e5933004 	ldr	r3, [r3, #4]
    ba04:	e02c1892 	mla	ip, r2, r8, r1
    ba08:	e153000e 	cmp	r3, lr
    ba0c:	e50e3004 	str	r3, [lr, #-4]
    ba10:	059e3004 	ldreq	r3, [lr, #4]
    ba14:	050e3004 	streq	r3, [lr, #-4]
    ba18:	e593900c 	ldr	r9, [r3, #12]
    ba1c:	e5933004 	ldr	r3, [r3, #4]
    ba20:	e153000e 	cmp	r3, lr
    ba24:	e50e3004 	str	r3, [lr, #-4]
    ba28:	059e3004 	ldreq	r3, [lr, #4]
    ba2c:	050e3004 	streq	r3, [lr, #-4]
    ba30:	e593600c 	ldr	r6, [r3, #12]
    ba34:	e3560000 	cmp	r6, #0
    ba38:	11a03006 	movne	r3, r6
    ba3c:	05943020 	ldreq	r3, [r4, #32]
    ba40:	e58c3000 	str	r3, [ip]
    ba44:	e2832034 	add	r2, r3, #52	; 0x34
    ba48:	e58c2004 	str	r2, [ip, #4]
    ba4c:	e593202c 	ldr	r2, [r3, #44]	; 0x2c
    ba50:	e58c2010 	str	r2, [ip, #16]
    ba54:	e5932030 	ldr	r2, [r3, #48]	; 0x30
    ba58:	e58c201c 	str	r2, [ip, #28]
    ba5c:	e5932044 	ldr	r2, [r3, #68]	; 0x44
    ba60:	e58c2008 	str	r2, [ip, #8]
    ba64:	e593204c 	ldr	r2, [r3, #76]	; 0x4c
    ba68:	e58ca018 	str	sl, [ip, #24]
    ba6c:	e58c2014 	str	r2, [ip, #20]
    ba70:	e5942020 	ldr	r2, [r4, #32]
    ba74:	e0532002 	subs	r2, r3, r2
    ba78:	13a02001 	movne	r2, #1
    ba7c:	e5cc200c 	strb	r2, [ip, #12]
    ba80:	e5931030 	ldr	r1, [r3, #48]	; 0x30
    ba84:	e5d13000 	ldrb	r3, [r1]
    ba88:	e35300a5 	cmp	r3, #165	; 0xa5
    ba8c:	1a00000c 	bne	bac4 <uxTaskGetSystemState+0x1bc>
    ba90:	e2813001 	add	r3, r1, #1
    ba94:	e0430001 	sub	r0, r3, r1
    ba98:	e4d32001 	ldrb	r2, [r3], #1
    ba9c:	e35200a5 	cmp	r2, #165	; 0xa5
    baa0:	0afffffb 	beq	ba94 <uxTaskGetSystemState+0x18c>
    baa4:	e7ef0150 	ubfx	r0, r0, #2, #16
    baa8:	e1590006 	cmp	r9, r6
    baac:	e2877001 	add	r7, r7, #1
    bab0:	e1cc02b0 	strh	r0, [ip, #32]
    bab4:	e28cc024 	add	ip, ip, #36	; 0x24
    bab8:	0affffa9 	beq	b964 <uxTaskGetSystemState+0x5c>
    babc:	e51e3004 	ldr	r3, [lr, #-4]
    bac0:	eaffffd5 	b	ba1c <uxTaskGetSystemState+0x114>
    bac4:	e3a00000 	mov	r0, #0
    bac8:	eafffff6 	b	baa8 <uxTaskGetSystemState+0x1a0>
    bacc:	e59430c8 	ldr	r3, [r4, #200]	; 0xc8
    bad0:	e3a02024 	mov	r2, #36	; 0x24
    bad4:	e59f83b4 	ldr	r8, [pc, #948]	; be90 <uxTaskGetSystemState+0x588>
    bad8:	e3a07000 	mov	r7, #0
    badc:	e5933004 	ldr	r3, [r3, #4]
    bae0:	e59d100c 	ldr	r1, [sp, #12]
    bae4:	e1530008 	cmp	r3, r8
    bae8:	e58430c8 	str	r3, [r4, #200]	; 0xc8
    baec:	e59d0004 	ldr	r0, [sp, #4]
    baf0:	059430d0 	ldreq	r3, [r4, #208]	; 0xd0
    baf4:	e0260192 	mla	r6, r2, r1, r0
    baf8:	e593900c 	ldr	r9, [r3, #12]
    bafc:	058430c8 	streq	r3, [r4, #200]	; 0xc8
    bb00:	e5933004 	ldr	r3, [r3, #4]
    bb04:	e1530008 	cmp	r3, r8
    bb08:	e58430c8 	str	r3, [r4, #200]	; 0xc8
    bb0c:	059430d0 	ldreq	r3, [r4, #208]	; 0xd0
    bb10:	e593a00c 	ldr	sl, [r3, #12]
    bb14:	058430c8 	streq	r3, [r4, #200]	; 0xc8
    bb18:	e35a0000 	cmp	sl, #0
    bb1c:	11a0b00a 	movne	fp, sl
    bb20:	0594b020 	ldreq	fp, [r4, #32]
    bb24:	e586b000 	str	fp, [r6]
    bb28:	e28b3034 	add	r3, fp, #52	; 0x34
    bb2c:	e5863004 	str	r3, [r6, #4]
    bb30:	e59b302c 	ldr	r3, [fp, #44]	; 0x2c
    bb34:	e5863010 	str	r3, [r6, #16]
    bb38:	e59b3030 	ldr	r3, [fp, #48]	; 0x30
    bb3c:	e586301c 	str	r3, [r6, #28]
    bb40:	e59b3044 	ldr	r3, [fp, #68]	; 0x44
    bb44:	e5863008 	str	r3, [r6, #8]
    bb48:	e59b304c 	ldr	r3, [fp, #76]	; 0x4c
    bb4c:	e5867018 	str	r7, [r6, #24]
    bb50:	e5863014 	str	r3, [r6, #20]
    bb54:	e5943020 	ldr	r3, [r4, #32]
    bb58:	e15b0003 	cmp	fp, r3
    bb5c:	05c6700c 	strbeq	r7, [r6, #12]
    bb60:	0a000009 	beq	bb8c <uxTaskGetSystemState+0x284>
    bb64:	e3a03003 	mov	r3, #3
    bb68:	e5c6300c 	strb	r3, [r6, #12]
    bb6c:	e59b2028 	ldr	r2, [fp, #40]	; 0x28
    bb70:	e59430f0 	ldr	r3, [r4, #240]	; 0xf0
    bb74:	e3520000 	cmp	r2, #0
    bb78:	e2833001 	add	r3, r3, #1
    bb7c:	e58430f0 	str	r3, [r4, #240]	; 0xf0
    bb80:	13a03002 	movne	r3, #2
    bb84:	15c6300c 	strbne	r3, [r6, #12]
    bb88:	ebfffef3 	bl	b75c <xTaskResumeAll>
    bb8c:	e59b1030 	ldr	r1, [fp, #48]	; 0x30
    bb90:	e5d13000 	ldrb	r3, [r1]
    bb94:	e35300a5 	cmp	r3, #165	; 0xa5
    bb98:	1a0000ba 	bne	be88 <uxTaskGetSystemState+0x580>
    bb9c:	e2813001 	add	r3, r1, #1
    bba0:	e0430001 	sub	r0, r3, r1
    bba4:	e4d32001 	ldrb	r2, [r3], #1
    bba8:	e35200a5 	cmp	r2, #165	; 0xa5
    bbac:	0afffffb 	beq	bba0 <uxTaskGetSystemState+0x298>
    bbb0:	e7ef0150 	ubfx	r0, r0, #2, #16
    bbb4:	e159000a 	cmp	r9, sl
    bbb8:	e2855001 	add	r5, r5, #1
    bbbc:	e1c602b0 	strh	r0, [r6, #32]
    bbc0:	e2866024 	add	r6, r6, #36	; 0x24
    bbc4:	0affff7e 	beq	b9c4 <uxTaskGetSystemState+0xbc>
    bbc8:	e59430c8 	ldr	r3, [r4, #200]	; 0xc8
    bbcc:	eaffffcb 	b	bb00 <uxTaskGetSystemState+0x1f8>
    bbd0:	e5963004 	ldr	r3, [r6, #4]
    bbd4:	e2867008 	add	r7, r6, #8
    bbd8:	e59d2004 	ldr	r2, [sp, #4]
    bbdc:	e3a0c024 	mov	ip, #36	; 0x24
    bbe0:	e5933004 	ldr	r3, [r3, #4]
    bbe4:	e3a09000 	mov	r9, #0
    bbe8:	e02c289c 	mla	ip, ip, r8, r2
    bbec:	e1530007 	cmp	r3, r7
    bbf0:	e1a0a009 	mov	sl, r9
    bbf4:	e5863004 	str	r3, [r6, #4]
    bbf8:	0596300c 	ldreq	r3, [r6, #12]
    bbfc:	05863004 	streq	r3, [r6, #4]
    bc00:	e593b00c 	ldr	fp, [r3, #12]
    bc04:	e5933004 	ldr	r3, [r3, #4]
    bc08:	e1570003 	cmp	r7, r3
    bc0c:	e5863004 	str	r3, [r6, #4]
    bc10:	0596300c 	ldreq	r3, [r6, #12]
    bc14:	05863004 	streq	r3, [r6, #4]
    bc18:	e593e00c 	ldr	lr, [r3, #12]
    bc1c:	e35e0000 	cmp	lr, #0
    bc20:	11a0300e 	movne	r3, lr
    bc24:	05943020 	ldreq	r3, [r4, #32]
    bc28:	e58c3000 	str	r3, [ip]
    bc2c:	e2832034 	add	r2, r3, #52	; 0x34
    bc30:	e58c2004 	str	r2, [ip, #4]
    bc34:	e593202c 	ldr	r2, [r3, #44]	; 0x2c
    bc38:	e58c2010 	str	r2, [ip, #16]
    bc3c:	e5932030 	ldr	r2, [r3, #48]	; 0x30
    bc40:	e58c201c 	str	r2, [ip, #28]
    bc44:	e5932044 	ldr	r2, [r3, #68]	; 0x44
    bc48:	e58c2008 	str	r2, [ip, #8]
    bc4c:	e593204c 	ldr	r2, [r3, #76]	; 0x4c
    bc50:	e58ca018 	str	sl, [ip, #24]
    bc54:	e58c2014 	str	r2, [ip, #20]
    bc58:	e5942020 	ldr	r2, [r4, #32]
    bc5c:	e1530002 	cmp	r3, r2
    bc60:	13a02002 	movne	r2, #2
    bc64:	03a02000 	moveq	r2, #0
    bc68:	e5cc200c 	strb	r2, [ip, #12]
    bc6c:	e5931030 	ldr	r1, [r3, #48]	; 0x30
    bc70:	e5d13000 	ldrb	r3, [r1]
    bc74:	e35300a5 	cmp	r3, #165	; 0xa5
    bc78:	1a000080 	bne	be80 <uxTaskGetSystemState+0x578>
    bc7c:	e2813001 	add	r3, r1, #1
    bc80:	e0430001 	sub	r0, r3, r1
    bc84:	e4d32001 	ldrb	r2, [r3], #1
    bc88:	e35200a5 	cmp	r2, #165	; 0xa5
    bc8c:	0afffffb 	beq	bc80 <uxTaskGetSystemState+0x378>
    bc90:	e7ef0150 	ubfx	r0, r0, #2, #16
    bc94:	e15b000e 	cmp	fp, lr
    bc98:	e2899001 	add	r9, r9, #1
    bc9c:	e1cc02b0 	strh	r0, [ip, #32]
    bca0:	e28cc024 	add	ip, ip, #36	; 0x24
    bca4:	0affff37 	beq	b988 <uxTaskGetSystemState+0x80>
    bca8:	e5963004 	ldr	r3, [r6, #4]
    bcac:	eaffffd4 	b	bc04 <uxTaskGetSystemState+0x2fc>
    bcb0:	e5973004 	ldr	r3, [r7, #4]
    bcb4:	e2879008 	add	r9, r7, #8
    bcb8:	e59d2004 	ldr	r2, [sp, #4]
    bcbc:	e3a0c024 	mov	ip, #36	; 0x24
    bcc0:	e5933004 	ldr	r3, [r3, #4]
    bcc4:	e3a06000 	mov	r6, #0
    bcc8:	e02c289c 	mla	ip, ip, r8, r2
    bccc:	e1530009 	cmp	r3, r9
    bcd0:	e1a0a006 	mov	sl, r6
    bcd4:	e5873004 	str	r3, [r7, #4]
    bcd8:	0597300c 	ldreq	r3, [r7, #12]
    bcdc:	05873004 	streq	r3, [r7, #4]
    bce0:	e593b00c 	ldr	fp, [r3, #12]
    bce4:	e5933004 	ldr	r3, [r3, #4]
    bce8:	e1590003 	cmp	r9, r3
    bcec:	e5873004 	str	r3, [r7, #4]
    bcf0:	0597300c 	ldreq	r3, [r7, #12]
    bcf4:	05873004 	streq	r3, [r7, #4]
    bcf8:	e593e00c 	ldr	lr, [r3, #12]
    bcfc:	e35e0000 	cmp	lr, #0
    bd00:	11a0300e 	movne	r3, lr
    bd04:	05943020 	ldreq	r3, [r4, #32]
    bd08:	e58c3000 	str	r3, [ip]
    bd0c:	e2832034 	add	r2, r3, #52	; 0x34
    bd10:	e58c2004 	str	r2, [ip, #4]
    bd14:	e593202c 	ldr	r2, [r3, #44]	; 0x2c
    bd18:	e58c2010 	str	r2, [ip, #16]
    bd1c:	e5932030 	ldr	r2, [r3, #48]	; 0x30
    bd20:	e58c201c 	str	r2, [ip, #28]
    bd24:	e5932044 	ldr	r2, [r3, #68]	; 0x44
    bd28:	e58c2008 	str	r2, [ip, #8]
    bd2c:	e593204c 	ldr	r2, [r3, #76]	; 0x4c
    bd30:	e58ca018 	str	sl, [ip, #24]
    bd34:	e58c2014 	str	r2, [ip, #20]
    bd38:	e5942020 	ldr	r2, [r4, #32]
    bd3c:	e1530002 	cmp	r3, r2
    bd40:	13a02002 	movne	r2, #2
    bd44:	03a02000 	moveq	r2, #0
    bd48:	e5cc200c 	strb	r2, [ip, #12]
    bd4c:	e5931030 	ldr	r1, [r3, #48]	; 0x30
    bd50:	e5d13000 	ldrb	r3, [r1]
    bd54:	e35300a5 	cmp	r3, #165	; 0xa5
    bd58:	1a000046 	bne	be78 <uxTaskGetSystemState+0x570>
    bd5c:	e2813001 	add	r3, r1, #1
    bd60:	e0430001 	sub	r0, r3, r1
    bd64:	e4d32001 	ldrb	r2, [r3], #1
    bd68:	e35200a5 	cmp	r2, #165	; 0xa5
    bd6c:	0afffffb 	beq	bd60 <uxTaskGetSystemState+0x458>
    bd70:	e7ef0150 	ubfx	r0, r0, #2, #16
    bd74:	e15b000e 	cmp	fp, lr
    bd78:	e2866001 	add	r6, r6, #1
    bd7c:	e1cc02b0 	strh	r0, [ip, #32]
    bd80:	e28cc024 	add	ip, ip, #36	; 0x24
    bd84:	0affff04 	beq	b99c <uxTaskGetSystemState+0x94>
    bd88:	e5973004 	ldr	r3, [r7, #4]
    bd8c:	eaffffd4 	b	bce4 <uxTaskGetSystemState+0x3dc>
    bd90:	e5943008 	ldr	r3, [r4, #8]
    bd94:	e3a0c024 	mov	ip, #36	; 0x24
    bd98:	e59f70f4 	ldr	r7, [pc, #244]	; be94 <uxTaskGetSystemState+0x58c>
    bd9c:	e3a06000 	mov	r6, #0
    bda0:	e5933004 	ldr	r3, [r3, #4]
    bda4:	e1a09006 	mov	r9, r6
    bda8:	e59d2004 	ldr	r2, [sp, #4]
    bdac:	e1530007 	cmp	r3, r7
    bdb0:	e5843008 	str	r3, [r4, #8]
    bdb4:	05943010 	ldreq	r3, [r4, #16]
    bdb8:	e02c289c 	mla	ip, ip, r8, r2
    bdbc:	e593a00c 	ldr	sl, [r3, #12]
    bdc0:	05843008 	streq	r3, [r4, #8]
    bdc4:	e5933004 	ldr	r3, [r3, #4]
    bdc8:	e1530007 	cmp	r3, r7
    bdcc:	e5843008 	str	r3, [r4, #8]
    bdd0:	05943010 	ldreq	r3, [r4, #16]
    bdd4:	e593e00c 	ldr	lr, [r3, #12]
    bdd8:	05843008 	streq	r3, [r4, #8]
    bddc:	e35e0000 	cmp	lr, #0
    bde0:	11a0300e 	movne	r3, lr
    bde4:	05943020 	ldreq	r3, [r4, #32]
    bde8:	e58c3000 	str	r3, [ip]
    bdec:	e2832034 	add	r2, r3, #52	; 0x34
    bdf0:	e58c2004 	str	r2, [ip, #4]
    bdf4:	e593202c 	ldr	r2, [r3, #44]	; 0x2c
    bdf8:	e58c2010 	str	r2, [ip, #16]
    bdfc:	e5932030 	ldr	r2, [r3, #48]	; 0x30
    be00:	e58c201c 	str	r2, [ip, #28]
    be04:	e5932044 	ldr	r2, [r3, #68]	; 0x44
    be08:	e58c2008 	str	r2, [ip, #8]
    be0c:	e593204c 	ldr	r2, [r3, #76]	; 0x4c
    be10:	e58c9018 	str	r9, [ip, #24]
    be14:	e58c2014 	str	r2, [ip, #20]
    be18:	e5942020 	ldr	r2, [r4, #32]
    be1c:	e1530002 	cmp	r3, r2
    be20:	13a02004 	movne	r2, #4
    be24:	03a02000 	moveq	r2, #0
    be28:	e5cc200c 	strb	r2, [ip, #12]
    be2c:	e5931030 	ldr	r1, [r3, #48]	; 0x30
    be30:	e5d13000 	ldrb	r3, [r1]
    be34:	e35300a5 	cmp	r3, #165	; 0xa5
    be38:	1a00000c 	bne	be70 <uxTaskGetSystemState+0x568>
    be3c:	e2813001 	add	r3, r1, #1
    be40:	e0430001 	sub	r0, r3, r1
    be44:	e4d32001 	ldrb	r2, [r3], #1
    be48:	e35200a5 	cmp	r2, #165	; 0xa5
    be4c:	0afffffb 	beq	be40 <uxTaskGetSystemState+0x538>
    be50:	e7ef0150 	ubfx	r0, r0, #2, #16
    be54:	e15a000e 	cmp	sl, lr
    be58:	e2866001 	add	r6, r6, #1
    be5c:	e1cc02b0 	strh	r0, [ip, #32]
    be60:	e28cc024 	add	ip, ip, #36	; 0x24
    be64:	0afffed1 	beq	b9b0 <uxTaskGetSystemState+0xa8>
    be68:	e5943008 	ldr	r3, [r4, #8]
    be6c:	eaffffd4 	b	bdc4 <uxTaskGetSystemState+0x4bc>
    be70:	e3a00000 	mov	r0, #0
    be74:	eafffff6 	b	be54 <uxTaskGetSystemState+0x54c>
    be78:	e3a00000 	mov	r0, #0
    be7c:	eaffffbc 	b	bd74 <uxTaskGetSystemState+0x46c>
    be80:	e3a00000 	mov	r0, #0
    be84:	eaffff82 	b	bc94 <uxTaskGetSystemState+0x38c>
    be88:	e3a00000 	mov	r0, #0
    be8c:	eaffff48 	b	bbb4 <uxTaskGetSystemState+0x2ac>
    be90:	00021304 	.word	0x00021304
    be94:	00021244 	.word	0x00021244

0000be98 <vTaskSwitchContext>:
    be98:	e3013238 	movw	r3, #4664	; 0x1238
    be9c:	e3403002 	movt	r3, #2
    bea0:	e59320f0 	ldr	r2, [r3, #240]	; 0xf0
    bea4:	e3520000 	cmp	r2, #0
    bea8:	1a00002e 	bne	bf68 <vTaskSwitchContext+0xd0>
    beac:	e58320f4 	str	r2, [r3, #244]	; 0xf4
    beb0:	e3a01014 	mov	r1, #20
    beb4:	e59320e8 	ldr	r2, [r3, #232]	; 0xe8
    beb8:	e0203291 	mla	r0, r1, r2, r3
    bebc:	e5900024 	ldr	r0, [r0, #36]	; 0x24
    bec0:	e3500000 	cmp	r0, #0
    bec4:	1a000016 	bne	bf24 <vTaskSwitchContext+0x8c>
    bec8:	e2420001 	sub	r0, r2, #1
    becc:	e02c3091 	mla	ip, r1, r0, r3
    bed0:	e59cc024 	ldr	ip, [ip, #36]	; 0x24
    bed4:	e35c0000 	cmp	ip, #0
    bed8:	1a000020 	bne	bf60 <vTaskSwitchContext+0xc8>
    bedc:	e2420002 	sub	r0, r2, #2
    bee0:	e02c3091 	mla	ip, r1, r0, r3
    bee4:	e59cc024 	ldr	ip, [ip, #36]	; 0x24
    bee8:	e35c0000 	cmp	ip, #0
    beec:	1a00001b 	bne	bf60 <vTaskSwitchContext+0xc8>
    bef0:	e2420003 	sub	r0, r2, #3
    bef4:	e02c3091 	mla	ip, r1, r0, r3
    bef8:	e59cc024 	ldr	ip, [ip, #36]	; 0x24
    befc:	e35c0000 	cmp	ip, #0
    bf00:	1a000016 	bne	bf60 <vTaskSwitchContext+0xc8>
    bf04:	e2420004 	sub	r0, r2, #4
    bf08:	e02c3091 	mla	ip, r1, r0, r3
    bf0c:	e59cc024 	ldr	ip, [ip, #36]	; 0x24
    bf10:	e35c0000 	cmp	ip, #0
    bf14:	1a000011 	bne	bf60 <vTaskSwitchContext+0xc8>
    bf18:	e2422005 	sub	r2, r2, #5
    bf1c:	e0213291 	mla	r1, r1, r2, r3
    bf20:	e5911024 	ldr	r1, [r1, #36]	; 0x24
    bf24:	e59f0048 	ldr	r0, [pc, #72]	; bf74 <vTaskSwitchContext+0xdc>
    bf28:	e3a01014 	mov	r1, #20
    bf2c:	e0010291 	mul	r1, r1, r2
    bf30:	e083c001 	add	ip, r3, r1
    bf34:	e0811000 	add	r1, r1, r0
    bf38:	e59c0028 	ldr	r0, [ip, #40]	; 0x28
    bf3c:	e5900004 	ldr	r0, [r0, #4]
    bf40:	e1500001 	cmp	r0, r1
    bf44:	e58c0028 	str	r0, [ip, #40]	; 0x28
    bf48:	05900004 	ldreq	r0, [r0, #4]
    bf4c:	058c0028 	streq	r0, [ip, #40]	; 0x28
    bf50:	e590100c 	ldr	r1, [r0, #12]
    bf54:	e5831020 	str	r1, [r3, #32]
    bf58:	e58320e8 	str	r2, [r3, #232]	; 0xe8
    bf5c:	e12fff1e 	bx	lr
    bf60:	e1a02000 	mov	r2, r0
    bf64:	eaffffee 	b	bf24 <vTaskSwitchContext+0x8c>
    bf68:	e3a02001 	mov	r2, #1
    bf6c:	e58320f4 	str	r2, [r3, #244]	; 0xf4
    bf70:	e12fff1e 	bx	lr
    bf74:	00021264 	.word	0x00021264

0000bf78 <vTaskPlaceOnEventList>:
    bf78:	e92d4070 	push	{r4, r5, r6, lr}
    bf7c:	e3014238 	movw	r4, #4664	; 0x1238
    bf80:	e3404002 	movt	r4, #2
    bf84:	e1a05001 	mov	r5, r1
    bf88:	e5941020 	ldr	r1, [r4, #32]
    bf8c:	e2811018 	add	r1, r1, #24
    bf90:	ebfffc4a 	bl	b0c0 <vListInsert>
    bf94:	e59460fc 	ldr	r6, [r4, #252]	; 0xfc
    bf98:	e5940020 	ldr	r0, [r4, #32]
    bf9c:	e2800004 	add	r0, r0, #4
    bfa0:	ebfffc5d 	bl	b11c <uxListRemove>
    bfa4:	e3750001 	cmn	r5, #1
    bfa8:	0a000011 	beq	bff4 <vTaskPlaceOnEventList+0x7c>
    bfac:	e0855006 	add	r5, r5, r6
    bfb0:	e5943020 	ldr	r3, [r4, #32]
    bfb4:	e1560005 	cmp	r6, r5
    bfb8:	e5835004 	str	r5, [r3, #4]
    bfbc:	8a000007 	bhi	bfe0 <vTaskPlaceOnEventList+0x68>
    bfc0:	e59400d8 	ldr	r0, [r4, #216]	; 0xd8
    bfc4:	e5941020 	ldr	r1, [r4, #32]
    bfc8:	e2811004 	add	r1, r1, #4
    bfcc:	ebfffc3b 	bl	b0c0 <vListInsert>
    bfd0:	e59430ec 	ldr	r3, [r4, #236]	; 0xec
    bfd4:	e1550003 	cmp	r5, r3
    bfd8:	358450ec 	strcc	r5, [r4, #236]	; 0xec
    bfdc:	e8bd8070 	pop	{r4, r5, r6, pc}
    bfe0:	e59400dc 	ldr	r0, [r4, #220]	; 0xdc
    bfe4:	e5941020 	ldr	r1, [r4, #32]
    bfe8:	e8bd4070 	pop	{r4, r5, r6, lr}
    bfec:	e2811004 	add	r1, r1, #4
    bff0:	eafffc32 	b	b0c0 <vListInsert>
    bff4:	e5941020 	ldr	r1, [r4, #32]
    bff8:	e28400c4 	add	r0, r4, #196	; 0xc4
    bffc:	e8bd4070 	pop	{r4, r5, r6, lr}
    c000:	e2811004 	add	r1, r1, #4
    c004:	eafffc21 	b	b090 <vListInsertEnd>

0000c008 <xTaskRemoveFromEventList>:
    c008:	e92d4070 	push	{r4, r5, r6, lr}
    c00c:	e3014238 	movw	r4, #4664	; 0x1238
    c010:	e590300c 	ldr	r3, [r0, #12]
    c014:	e3404002 	movt	r4, #2
    c018:	e593500c 	ldr	r5, [r3, #12]
    c01c:	e2856018 	add	r6, r5, #24
    c020:	e1a00006 	mov	r0, r6
    c024:	ebfffc3c 	bl	b11c <uxListRemove>
    c028:	e59430f0 	ldr	r3, [r4, #240]	; 0xf0
    c02c:	e3530000 	cmp	r3, #0
    c030:	1a000013 	bne	c084 <xTaskRemoveFromEventList+0x7c>
    c034:	e2856004 	add	r6, r5, #4
    c038:	e1a00006 	mov	r0, r6
    c03c:	ebfffc36 	bl	b11c <uxListRemove>
    c040:	e595302c 	ldr	r3, [r5, #44]	; 0x2c
    c044:	e3a00014 	mov	r0, #20
    c048:	e59420e8 	ldr	r2, [r4, #232]	; 0xe8
    c04c:	e1a01006 	mov	r1, r6
    c050:	e1530002 	cmp	r3, r2
    c054:	e59f2038 	ldr	r2, [pc, #56]	; c094 <xTaskRemoveFromEventList+0x8c>
    c058:	858430e8 	strhi	r3, [r4, #232]	; 0xe8
    c05c:	e0202390 	mla	r0, r0, r3, r2
    c060:	ebfffc0a 	bl	b090 <vListInsertEnd>
    c064:	e5943020 	ldr	r3, [r4, #32]
    c068:	e595202c 	ldr	r2, [r5, #44]	; 0x2c
    c06c:	e593302c 	ldr	r3, [r3, #44]	; 0x2c
    c070:	e1520003 	cmp	r2, r3
    c074:	83a00001 	movhi	r0, #1
    c078:	93a00000 	movls	r0, #0
    c07c:	858400f4 	strhi	r0, [r4, #244]	; 0xf4
    c080:	e8bd8070 	pop	{r4, r5, r6, pc}
    c084:	e1a01006 	mov	r1, r6
    c088:	e28400b0 	add	r0, r4, #176	; 0xb0
    c08c:	ebfffbff 	bl	b090 <vListInsertEnd>
    c090:	eafffff3 	b	c064 <xTaskRemoveFromEventList+0x5c>
    c094:	0002125c 	.word	0x0002125c

0000c098 <vTaskInternalSetTimeOutState>:
    c098:	e3013238 	movw	r3, #4664	; 0x1238
    c09c:	e3403002 	movt	r3, #2
    c0a0:	e5932108 	ldr	r2, [r3, #264]	; 0x108
    c0a4:	e59330fc 	ldr	r3, [r3, #252]	; 0xfc
    c0a8:	e880000c 	stm	r0, {r2, r3}
    c0ac:	e12fff1e 	bx	lr

0000c0b0 <xTaskCheckForTimeOut>:
    c0b0:	e92d4070 	push	{r4, r5, r6, lr}
    c0b4:	e1a06001 	mov	r6, r1
    c0b8:	e1a05000 	mov	r5, r0
    c0bc:	eb000148 	bl	c5e4 <vPortEnterCritical>
    c0c0:	e596e000 	ldr	lr, [r6]
    c0c4:	e3012238 	movw	r2, #4664	; 0x1238
    c0c8:	e3402002 	movt	r2, #2
    c0cc:	e37e0001 	cmn	lr, #1
    c0d0:	e592c0fc 	ldr	ip, [r2, #252]	; 0xfc
    c0d4:	03a04000 	moveq	r4, #0
    c0d8:	0a000013 	beq	c12c <xTaskCheckForTimeOut+0x7c>
    c0dc:	e5920108 	ldr	r0, [r2, #264]	; 0x108
    c0e0:	e5953000 	ldr	r3, [r5]
    c0e4:	e5951004 	ldr	r1, [r5, #4]
    c0e8:	e0533000 	subs	r3, r3, r0
    c0ec:	13a03001 	movne	r3, #1
    c0f0:	e15c0001 	cmp	ip, r1
    c0f4:	33a03000 	movcc	r3, #0
    c0f8:	e3530000 	cmp	r3, #0
    c0fc:	13a04001 	movne	r4, #1
    c100:	1a000009 	bne	c12c <xTaskCheckForTimeOut+0x7c>
    c104:	e04cc001 	sub	ip, ip, r1
    c108:	e15c000e 	cmp	ip, lr
    c10c:	304ec00c 	subcc	ip, lr, ip
    c110:	31a04003 	movcc	r4, r3
    c114:	35921108 	ldrcc	r1, [r2, #264]	; 0x108
    c118:	23a04001 	movcs	r4, #1
    c11c:	359230fc 	ldrcc	r3, [r2, #252]	; 0xfc
    c120:	3586c000 	strcc	ip, [r6]
    c124:	25863000 	strcs	r3, [r6]
    c128:	3885000a 	stmcc	r5, {r1, r3}
    c12c:	eb000137 	bl	c610 <vPortExitCritical>
    c130:	e1a00004 	mov	r0, r4
    c134:	e8bd8070 	pop	{r4, r5, r6, pc}

0000c138 <vTaskMissedYield>:
    c138:	e3013238 	movw	r3, #4664	; 0x1238
    c13c:	e3a02001 	mov	r2, #1
    c140:	e3403002 	movt	r3, #2
    c144:	e58320f4 	str	r2, [r3, #244]	; 0xf4
    c148:	e12fff1e 	bx	lr

0000c14c <xTaskPriorityInherit>:
    c14c:	e92d41f0 	push	{r4, r5, r6, r7, r8, lr}
    c150:	e2507000 	subs	r7, r0, #0
    c154:	0a00001e 	beq	c1d4 <xTaskPriorityInherit+0x88>
    c158:	e597202c 	ldr	r2, [r7, #44]	; 0x2c
    c15c:	e3014238 	movw	r4, #4664	; 0x1238
    c160:	e3404002 	movt	r4, #2
    c164:	e5941020 	ldr	r1, [r4, #32]
    c168:	e591102c 	ldr	r1, [r1, #44]	; 0x2c
    c16c:	e1520001 	cmp	r2, r1
    c170:	2a000010 	bcs	c1b8 <xTaskPriorityInherit+0x6c>
    c174:	e5971018 	ldr	r1, [r7, #24]
    c178:	e3a00014 	mov	r0, #20
    c17c:	e59f5094 	ldr	r5, [pc, #148]	; c218 <xTaskPriorityInherit+0xcc>
    c180:	e3510000 	cmp	r1, #0
    c184:	e0225290 	mla	r2, r0, r2, r5
    c188:	a5941020 	ldrge	r1, [r4, #32]
    c18c:	a591102c 	ldrge	r1, [r1, #44]	; 0x2c
    c190:	a2611005 	rsbge	r1, r1, #5
    c194:	a5871018 	strge	r1, [r7, #24]
    c198:	e5971014 	ldr	r1, [r7, #20]
    c19c:	e1510002 	cmp	r1, r2
    c1a0:	0a00000d 	beq	c1dc <xTaskPriorityInherit+0x90>
    c1a4:	e5942020 	ldr	r2, [r4, #32]
    c1a8:	e3a00001 	mov	r0, #1
    c1ac:	e592202c 	ldr	r2, [r2, #44]	; 0x2c
    c1b0:	e587202c 	str	r2, [r7, #44]	; 0x2c
    c1b4:	e8bd81f0 	pop	{r4, r5, r6, r7, r8, pc}
    c1b8:	e5942020 	ldr	r2, [r4, #32]
    c1bc:	e597004c 	ldr	r0, [r7, #76]	; 0x4c
    c1c0:	e592302c 	ldr	r3, [r2, #44]	; 0x2c
    c1c4:	e1500003 	cmp	r0, r3
    c1c8:	23a00000 	movcs	r0, #0
    c1cc:	33a00001 	movcc	r0, #1
    c1d0:	e8bd81f0 	pop	{r4, r5, r6, r7, r8, pc}
    c1d4:	e1a00007 	mov	r0, r7
    c1d8:	e8bd81f0 	pop	{r4, r5, r6, r7, r8, pc}
    c1dc:	e2876004 	add	r6, r7, #4
    c1e0:	e1a00006 	mov	r0, r6
    c1e4:	ebfffbcc 	bl	b11c <uxListRemove>
    c1e8:	e5942020 	ldr	r2, [r4, #32]
    c1ec:	e3a00014 	mov	r0, #20
    c1f0:	e59430e8 	ldr	r3, [r4, #232]	; 0xe8
    c1f4:	e1a01006 	mov	r1, r6
    c1f8:	e592202c 	ldr	r2, [r2, #44]	; 0x2c
    c1fc:	e1520003 	cmp	r2, r3
    c200:	e0205290 	mla	r0, r0, r2, r5
    c204:	e587202c 	str	r2, [r7, #44]	; 0x2c
    c208:	858420e8 	strhi	r2, [r4, #232]	; 0xe8
    c20c:	ebfffb9f 	bl	b090 <vListInsertEnd>
    c210:	e3a00001 	mov	r0, #1
    c214:	e8bd81f0 	pop	{r4, r5, r6, r7, r8, pc}
    c218:	0002125c 	.word	0x0002125c

0000c21c <xTaskPriorityDisinherit>:
    c21c:	e92d4070 	push	{r4, r5, r6, lr}
    c220:	e2504000 	subs	r4, r0, #0
    c224:	0a00000a 	beq	c254 <xTaskPriorityDisinherit+0x38>
    c228:	e5943050 	ldr	r3, [r4, #80]	; 0x50
    c22c:	e594202c 	ldr	r2, [r4, #44]	; 0x2c
    c230:	e594104c 	ldr	r1, [r4, #76]	; 0x4c
    c234:	e2433001 	sub	r3, r3, #1
    c238:	e5843050 	str	r3, [r4, #80]	; 0x50
    c23c:	e0522001 	subs	r2, r2, r1
    c240:	13a02001 	movne	r2, #1
    c244:	e3530000 	cmp	r3, #0
    c248:	13a02000 	movne	r2, #0
    c24c:	e3520000 	cmp	r2, #0
    c250:	1a000001 	bne	c25c <xTaskPriorityDisinherit+0x40>
    c254:	e3a00000 	mov	r0, #0
    c258:	e8bd8070 	pop	{r4, r5, r6, pc}
    c25c:	e2845004 	add	r5, r4, #4
    c260:	e1a00005 	mov	r0, r5
    c264:	ebfffbac 	bl	b11c <uxListRemove>
    c268:	e594304c 	ldr	r3, [r4, #76]	; 0x4c
    c26c:	e3012238 	movw	r2, #4664	; 0x1238
    c270:	e3402002 	movt	r2, #2
    c274:	e584302c 	str	r3, [r4, #44]	; 0x2c
    c278:	e2630005 	rsb	r0, r3, #5
    c27c:	e59210e8 	ldr	r1, [r2, #232]	; 0xe8
    c280:	e5840018 	str	r0, [r4, #24]
    c284:	e3a00014 	mov	r0, #20
    c288:	e1530001 	cmp	r3, r1
    c28c:	e1a01005 	mov	r1, r5
    c290:	858230e8 	strhi	r3, [r2, #232]	; 0xe8
    c294:	e59f200c 	ldr	r2, [pc, #12]	; c2a8 <xTaskPriorityDisinherit+0x8c>
    c298:	e0202390 	mla	r0, r0, r3, r2
    c29c:	ebfffb7b 	bl	b090 <vListInsertEnd>
    c2a0:	e3a00001 	mov	r0, #1
    c2a4:	e8bd8070 	pop	{r4, r5, r6, pc}
    c2a8:	0002125c 	.word	0x0002125c

0000c2ac <vTaskPriorityDisinheritAfterTimeout>:
    c2ac:	e3500000 	cmp	r0, #0
    c2b0:	012fff1e 	bxeq	lr
    c2b4:	e590304c 	ldr	r3, [r0, #76]	; 0x4c
    c2b8:	e590202c 	ldr	r2, [r0, #44]	; 0x2c
    c2bc:	e1510003 	cmp	r1, r3
    c2c0:	31a01003 	movcc	r1, r3
    c2c4:	e1520001 	cmp	r2, r1
    c2c8:	012fff1e 	bxeq	lr
    c2cc:	e5903050 	ldr	r3, [r0, #80]	; 0x50
    c2d0:	e3530001 	cmp	r3, #1
    c2d4:	112fff1e 	bxne	lr
    c2d8:	e92d41f0 	push	{r4, r5, r6, r7, r8, lr}
    c2dc:	e3015238 	movw	r5, #4664	; 0x1238
    c2e0:	e5903018 	ldr	r3, [r0, #24]
    c2e4:	e580102c 	str	r1, [r0, #44]	; 0x2c
    c2e8:	e3405002 	movt	r5, #2
    c2ec:	e3530000 	cmp	r3, #0
    c2f0:	e5903014 	ldr	r3, [r0, #20]
    c2f4:	a2611005 	rsbge	r1, r1, #5
    c2f8:	a5801018 	strge	r1, [r0, #24]
    c2fc:	e2856024 	add	r6, r5, #36	; 0x24
    c300:	e3a01014 	mov	r1, #20
    c304:	e0226291 	mla	r2, r1, r2, r6
    c308:	e1530002 	cmp	r3, r2
    c30c:	18bd81f0 	popne	{r4, r5, r6, r7, r8, pc}
    c310:	e1a04000 	mov	r4, r0
    c314:	e2807004 	add	r7, r0, #4
    c318:	e1a00007 	mov	r0, r7
    c31c:	ebfffb7e 	bl	b11c <uxListRemove>
    c320:	e594302c 	ldr	r3, [r4, #44]	; 0x2c
    c324:	e3a00014 	mov	r0, #20
    c328:	e59520e8 	ldr	r2, [r5, #232]	; 0xe8
    c32c:	e1a01007 	mov	r1, r7
    c330:	e0206390 	mla	r0, r0, r3, r6
    c334:	e1530002 	cmp	r3, r2
    c338:	858530e8 	strhi	r3, [r5, #232]	; 0xe8
    c33c:	e8bd41f0 	pop	{r4, r5, r6, r7, r8, lr}
    c340:	eafffb52 	b	b090 <vListInsertEnd>

0000c344 <vTaskList>:
    c344:	e3013238 	movw	r3, #4664	; 0x1238
    c348:	e3403002 	movt	r3, #2
    c34c:	e92d47f0 	push	{r4, r5, r6, r7, r8, r9, sl, lr}
    c350:	e1a06000 	mov	r6, r0
    c354:	e5934018 	ldr	r4, [r3, #24]
    c358:	e3a00024 	mov	r0, #36	; 0x24
    c35c:	e5933018 	ldr	r3, [r3, #24]
    c360:	e3a05000 	mov	r5, #0
    c364:	e5c65000 	strb	r5, [r6]
    c368:	e24dd010 	sub	sp, sp, #16
    c36c:	e0000390 	mul	r0, r0, r3
    c370:	eb0006e1 	bl	defc <pvPortMalloc>
    c374:	e250a000 	subs	sl, r0, #0
    c378:	0a000021 	beq	c404 <vTaskList+0xc0>
    c37c:	e1a01004 	mov	r1, r4
    c380:	e1a02005 	mov	r2, r5
    c384:	ebfffd5f 	bl	b908 <uxTaskGetSystemState>
    c388:	e2508000 	subs	r8, r0, #0
    c38c:	0a000018 	beq	c3f4 <vTaskList+0xb0>
    c390:	e30f9490 	movw	r9, #62608	; 0xf490
    c394:	e30f74a0 	movw	r7, #62624	; 0xf4a0
    c398:	e3409000 	movt	r9, #0
    c39c:	e1a0400a 	mov	r4, sl
    c3a0:	e3407000 	movt	r7, #0
    c3a4:	e5d4300c 	ldrb	r3, [r4, #12]
    c3a8:	e3a0c000 	mov	ip, #0
    c3ac:	e5941008 	ldr	r1, [r4, #8]
    c3b0:	e2855001 	add	r5, r5, #1
    c3b4:	e3530004 	cmp	r3, #4
    c3b8:	e3a0200f 	mov	r2, #15
    c3bc:	e2844024 	add	r4, r4, #36	; 0x24
    c3c0:	97d9c003 	ldrbls	ip, [r9, r3]
    c3c4:	e5143020 	ldr	r3, [r4, #-32]	; 0xffffffe0
    c3c8:	e58d100c 	str	r1, [sp, #12]
    c3cc:	e1a01007 	mov	r1, r7
    c3d0:	e15400b4 	ldrh	r0, [r4, #-4]
    c3d4:	e58d0008 	str	r0, [sp, #8]
    c3d8:	e1a00006 	mov	r0, r6
    c3dc:	e514e014 	ldr	lr, [r4, #-20]	; 0xffffffec
    c3e0:	e88d5000 	stm	sp, {ip, lr}
    c3e4:	eb000568 	bl	d98c <sprintf>
    c3e8:	e1580005 	cmp	r8, r5
    c3ec:	e0866000 	add	r6, r6, r0
    c3f0:	1affffeb 	bne	c3a4 <vTaskList+0x60>
    c3f4:	e1a0000a 	mov	r0, sl
    c3f8:	e28dd010 	add	sp, sp, #16
    c3fc:	e8bd47f0 	pop	{r4, r5, r6, r7, r8, r9, sl, lr}
    c400:	ea000737 	b	e0e4 <vPortFree>
    c404:	e28dd010 	add	sp, sp, #16
    c408:	e8bd87f0 	pop	{r4, r5, r6, r7, r8, r9, sl, pc}

0000c40c <pvTaskIncrementMutexHeldCount>:
    c40c:	e3013238 	movw	r3, #4664	; 0x1238
    c410:	e3403002 	movt	r3, #2
    c414:	e5932020 	ldr	r2, [r3, #32]
    c418:	e3520000 	cmp	r2, #0
    c41c:	15931020 	ldrne	r1, [r3, #32]
    c420:	e5930020 	ldr	r0, [r3, #32]
    c424:	15912050 	ldrne	r2, [r1, #80]	; 0x50
    c428:	12822001 	addne	r2, r2, #1
    c42c:	15812050 	strne	r2, [r1, #80]	; 0x50
    c430:	e12fff1e 	bx	lr

0000c434 <irqRegisterHandler>:
    c434:	e30fc590 	movw	ip, #62864	; 0xf590
    c438:	e340c000 	movt	ip, #0
    c43c:	e59cc000 	ldr	ip, [ip]
    c440:	e150000c 	cmp	r0, ip
    c444:	2a000009 	bcs	c470 <irqRegisterHandler+0x3c>
    c448:	e3a0c00c 	mov	ip, #12
    c44c:	e92d4010 	push	{r4, lr}
    c450:	e301e348 	movw	lr, #4936	; 0x1348
    c454:	e00c009c 	mul	ip, ip, r0
    c458:	e340e002 	movt	lr, #2
    c45c:	e3a00001 	mov	r0, #1
    c460:	e08e400c 	add	r4, lr, ip
    c464:	e78e100c 	str	r1, [lr, ip]
    c468:	e984000c 	stmib	r4, {r2, r3}
    c46c:	e8bd8010 	pop	{r4, pc}
    c470:	e3a00000 	mov	r0, #0
    c474:	e12fff1e 	bx	lr

0000c478 <irqHandler>:
    c478:	e92d4070 	push	{r4, r5, r6, lr}
    c47c:	ebfff035 	bl	8558 <getCoreID>
    c480:	e3014348 	movw	r4, #4936	; 0x1348
    c484:	e3a0300c 	mov	r3, #12
    c488:	e0030093 	mul	r3, r3, r0
    c48c:	e3404002 	movt	r4, #2
    c490:	e1a05000 	mov	r5, r0
    c494:	e0842003 	add	r2, r4, r3
    c498:	e7943003 	ldr	r3, [r4, r3]
    c49c:	e3530000 	cmp	r3, #0
    c4a0:	0a000002 	beq	c4b0 <irqHandler+0x38>
    c4a4:	e5921008 	ldr	r1, [r2, #8]
    c4a8:	e6ef0070 	uxtb	r0, r0
    c4ac:	e12fff33 	blx	r3
    c4b0:	e3a0300c 	mov	r3, #12
    c4b4:	e0244593 	mla	r4, r3, r5, r4
    c4b8:	e5943004 	ldr	r3, [r4, #4]
    c4bc:	e3530000 	cmp	r3, #0
    c4c0:	08bd8070 	popeq	{r4, r5, r6, pc}
    c4c4:	e8bd4070 	pop	{r4, r5, r6, lr}
    c4c8:	e12fff13 	bx	r3

0000c4cc <vTickISR>:
    c4cc:	e92d4010 	push	{r4, lr}
    c4d0:	ebfffc3a 	bl	b5c0 <xTaskIncrementTick>
    c4d4:	e8bd4010 	pop	{r4, lr}
    c4d8:	eafffe6e 	b	be98 <vTaskSwitchContext>

0000c4dc <pxPortInitialiseStack>:
    c4dc:	e1a03000 	mov	r3, r0
    c4e0:	e301c212 	movw	ip, #4626	; 0x1212
    c4e4:	e92d41f0 	push	{r4, r5, r6, r7, r8, lr}
    c4e8:	e30aeaaa 	movw	lr, #43690	; 0xaaaa
    c4ec:	e503000c 	str	r0, [r3, #-12]
    c4f0:	e3110001 	tst	r1, #1
    c4f4:	e5002040 	str	r2, [r0, #-64]	; 0xffffffc0
    c4f8:	e3010010 	movw	r0, #4112	; 0x1010
    c4fc:	e34aeaaa 	movt	lr, #43690	; 0xaaaa
    c500:	e2811004 	add	r1, r1, #4
    c504:	e341c212 	movt	ip, #4626	; 0x1212
    c508:	e3002808 	movw	r2, #2056	; 0x808
    c50c:	e3410010 	movt	r0, #4112	; 0x1010
    c510:	e3005606 	movw	r5, #1542	; 0x606
    c514:	e3405606 	movt	r5, #1542	; 0x606
    c518:	e3018111 	movw	r8, #4369	; 0x1111
    c51c:	e5031004 	str	r1, [r3, #-4]
    c520:	e3007909 	movw	r7, #2313	; 0x909
    c524:	e503e008 	str	lr, [r3, #-8]
    c528:	e3006707 	movw	r6, #1799	; 0x707
    c52c:	e503c010 	str	ip, [r3, #-16]
    c530:	e3004505 	movw	r4, #1285	; 0x505
    c534:	e5030018 	str	r0, [r3, #-24]	; 0xffffffe8
    c538:	e300e303 	movw	lr, #771	; 0x303
    c53c:	e3402808 	movt	r2, #2056	; 0x808
    c540:	e1a00003 	mov	r0, r3
    c544:	e5035028 	str	r5, [r3, #-40]	; 0xffffffd8
    c548:	e300c202 	movw	ip, #514	; 0x202
    c54c:	e5032020 	str	r2, [r3, #-32]	; 0xffffffe0
    c550:	e3001101 	movw	r1, #257	; 0x101
    c554:	e3418111 	movt	r8, #4369	; 0x1111
    c558:	e3a02000 	mov	r2, #0
    c55c:	e3407909 	movt	r7, #2313	; 0x909
    c560:	13a0503f 	movne	r5, #63	; 0x3f
    c564:	e3406707 	movt	r6, #1799	; 0x707
    c568:	03a0501f 	moveq	r5, #31
    c56c:	e3404505 	movt	r4, #1285	; 0x505
    c570:	e340e303 	movt	lr, #771	; 0x303
    c574:	e340c202 	movt	ip, #514	; 0x202
    c578:	e3401101 	movt	r1, #257	; 0x101
    c57c:	e5038014 	str	r8, [r3, #-20]	; 0xffffffec
    c580:	e503701c 	str	r7, [r3, #-28]	; 0xffffffe4
    c584:	e5036024 	str	r6, [r3, #-36]	; 0xffffffdc
    c588:	e503402c 	str	r4, [r3, #-44]	; 0xffffffd4
    c58c:	e503e034 	str	lr, [r3, #-52]	; 0xffffffcc
    c590:	e503c038 	str	ip, [r3, #-56]	; 0xffffffc8
    c594:	e503103c 	str	r1, [r3, #-60]	; 0xffffffc4
    c598:	e5035044 	str	r5, [r3, #-68]	; 0xffffffbc
    c59c:	e5032030 	str	r2, [r3, #-48]	; 0xffffffd0
    c5a0:	e5202048 	str	r2, [r0, #-72]!	; 0xffffffb8
    c5a4:	e8bd81f0 	pop	{r4, r5, r6, r7, r8, pc}

0000c5a8 <xPortStartScheduler>:
    c5a8:	e92d4010 	push	{r4, lr}
    c5ac:	ebffefdd 	bl	8528 <DisableInterrupts>
    c5b0:	e3a03000 	mov	r3, #0
    c5b4:	e3092960 	movw	r2, #39264	; 0x9960
    c5b8:	e3402000 	movt	r2, #0
    c5bc:	e30c14cc 	movw	r1, #50380	; 0xc4cc
    c5c0:	e3401000 	movt	r1, #0
    c5c4:	e1a00003 	mov	r0, r3
    c5c8:	ebffff99 	bl	c434 <irqRegisterHandler>
    c5cc:	e3a00ffa 	mov	r0, #1000	; 0x3e8
    c5d0:	ebfff4e9 	bl	997c <TimerIrqSetup>
    c5d4:	ebffefd1 	bl	8520 <EnableInterrupts>
    c5d8:	ebffefe9 	bl	8584 <restore_context>
    c5dc:	e3a00000 	mov	r0, #0
    c5e0:	e8bd8010 	pop	{r4, pc}

0000c5e4 <vPortEnterCritical>:
    c5e4:	e92d0001 	stmfd	sp!, {r0}
    c5e8:	e10f0000 	mrs	r0, CPSR
    c5ec:	e38000c0 	orr	r0, r0, #192	; 0xc0
    c5f0:	e129f000 	msr	CPSR_fc, r0
    c5f4:	e8bd0001 	ldmfd	sp!, {r0}
    c5f8:	e30f35ac 	movw	r3, #62892	; 0xf5ac
    c5fc:	e3403000 	movt	r3, #0
    c600:	e5932000 	ldr	r2, [r3]
    c604:	e2822001 	add	r2, r2, #1
    c608:	e5832000 	str	r2, [r3]
    c60c:	e12fff1e 	bx	lr

0000c610 <vPortExitCritical>:
    c610:	e30f35ac 	movw	r3, #62892	; 0xf5ac
    c614:	e3403000 	movt	r3, #0
    c618:	e5932000 	ldr	r2, [r3]
    c61c:	e3520000 	cmp	r2, #0
    c620:	012fff1e 	bxeq	lr
    c624:	e5932000 	ldr	r2, [r3]
    c628:	e2422001 	sub	r2, r2, #1
    c62c:	e5832000 	str	r2, [r3]
    c630:	e5933000 	ldr	r3, [r3]
    c634:	e3530000 	cmp	r3, #0
    c638:	112fff1e 	bxne	lr
    c63c:	e92d0001 	stmfd	sp!, {r0}
    c640:	e10f0000 	mrs	r0, CPSR
    c644:	e3c000c0 	bic	r0, r0, #192	; 0xc0
    c648:	e129f000 	msr	CPSR_fc, r0
    c64c:	e8bd0001 	ldmfd	sp!, {r0}
    c650:	e12fff1e 	bx	lr

0000c654 <_doprnt.constprop.2>:
    c654:	e92d4ff0 	push	{r4, r5, r6, r7, r8, r9, sl, fp, lr}
    c658:	e3017378 	movw	r7, #4984	; 0x1378
    c65c:	e3407002 	movt	r7, #2
    c660:	e24dd074 	sub	sp, sp, #116	; 0x74
    c664:	e30f35b0 	movw	r3, #62896	; 0xf5b0
    c668:	e1a08000 	mov	r8, r0
    c66c:	e3403000 	movt	r3, #0
    c670:	e1a09002 	mov	r9, r2
    c674:	e58d3008 	str	r3, [sp, #8]
    c678:	e3a0a000 	mov	sl, #0
    c67c:	e5d80000 	ldrb	r0, [r8]
    c680:	e3500000 	cmp	r0, #0
    c684:	0a000069 	beq	c830 <_doprnt.constprop.2+0x1dc>
    c688:	e3500025 	cmp	r0, #37	; 0x25
    c68c:	12888001 	addne	r8, r8, #1
    c690:	1a000054 	bne	c7e8 <_doprnt.constprop.2+0x194>
    c694:	e5d83001 	ldrb	r3, [r8, #1]
    c698:	e288e001 	add	lr, r8, #1
    c69c:	e3530025 	cmp	r3, #37	; 0x25
    c6a0:	0a000065 	beq	c83c <_doprnt.constprop.2+0x1e8>
    c6a4:	e1a0300e 	mov	r3, lr
    c6a8:	e3a0c000 	mov	ip, #0
    c6ac:	e58dc00c 	str	ip, [sp, #12]
    c6b0:	e3a02020 	mov	r2, #32
    c6b4:	e58d2004 	str	r2, [sp, #4]
    c6b8:	e5d32000 	ldrb	r2, [r3]
    c6bc:	e1a08003 	mov	r8, r3
    c6c0:	e2833001 	add	r3, r3, #1
    c6c4:	e352002d 	cmp	r2, #45	; 0x2d
    c6c8:	0a000055 	beq	c824 <_doprnt.constprop.2+0x1d0>
    c6cc:	e3520030 	cmp	r2, #48	; 0x30
    c6d0:	0a000051 	beq	c81c <_doprnt.constprop.2+0x1c8>
    c6d4:	e3520023 	cmp	r2, #35	; 0x23
    c6d8:	0a00004d 	beq	c814 <_doprnt.constprop.2+0x1c0>
    c6dc:	e352002a 	cmp	r2, #42	; 0x2a
    c6e0:	0a0001ca 	beq	ce10 <_doprnt.constprop.2+0x7bc>
    c6e4:	e2423030 	sub	r3, r2, #48	; 0x30
    c6e8:	e3a04000 	mov	r4, #0
    c6ec:	e3530009 	cmp	r3, #9
    c6f0:	93a0500a 	movls	r5, #10
    c6f4:	8a000005 	bhi	c710 <_doprnt.constprop.2+0xbc>
    c6f8:	e0242495 	mla	r4, r5, r4, r2
    c6fc:	e5f82001 	ldrb	r2, [r8, #1]!
    c700:	e2444030 	sub	r4, r4, #48	; 0x30
    c704:	e2423030 	sub	r3, r2, #48	; 0x30
    c708:	e3530009 	cmp	r3, #9
    c70c:	9afffff9 	bls	c6f8 <_doprnt.constprop.2+0xa4>
    c710:	e59d300c 	ldr	r3, [sp, #12]
    c714:	e3530000 	cmp	r3, #0
    c718:	e59d3004 	ldr	r3, [sp, #4]
    c71c:	13a03020 	movne	r3, #32
    c720:	e58d3004 	str	r3, [sp, #4]
    c724:	03a03001 	moveq	r3, #1
    c728:	13a03000 	movne	r3, #0
    c72c:	e58d3018 	str	r3, [sp, #24]
    c730:	e352002e 	cmp	r2, #46	; 0x2e
    c734:	13e05000 	mvnne	r5, #0
    c738:	0a000049 	beq	c864 <_doprnt.constprop.2+0x210>
    c73c:	e352006c 	cmp	r2, #108	; 0x6c
    c740:	0a00003f 	beq	c844 <_doprnt.constprop.2+0x1f0>
    c744:	e3520068 	cmp	r2, #104	; 0x68
    c748:	13a03002 	movne	r3, #2
    c74c:	0a000055 	beq	c8a8 <_doprnt.constprop.2+0x254>
    c750:	e2422058 	sub	r2, r2, #88	; 0x58
    c754:	e3520020 	cmp	r2, #32
    c758:	979ff102 	ldrls	pc, [pc, r2, lsl #2]
    c75c:	ea000020 	b	c7e4 <_doprnt.constprop.2+0x190>
    c760:	0000cbf0 	.word	0x0000cbf0
    c764:	0000c7e4 	.word	0x0000c7e4
    c768:	0000c7e4 	.word	0x0000c7e4
    c76c:	0000c7e4 	.word	0x0000c7e4
    c770:	0000c7e4 	.word	0x0000c7e4
    c774:	0000c7e4 	.word	0x0000c7e4
    c778:	0000c7e4 	.word	0x0000c7e4
    c77c:	0000c7e4 	.word	0x0000c7e4
    c780:	0000c7e4 	.word	0x0000c7e4
    c784:	0000c7e4 	.word	0x0000c7e4
    c788:	0000c8c8 	.word	0x0000c8c8
    c78c:	0000cc0c 	.word	0x0000cc0c
    c790:	0000ccb0 	.word	0x0000ccb0
    c794:	0000c7e4 	.word	0x0000c7e4
    c798:	0000c7e4 	.word	0x0000c7e4
    c79c:	0000c7e4 	.word	0x0000c7e4
    c7a0:	0000c7e4 	.word	0x0000c7e4
    c7a4:	0000ccb0 	.word	0x0000ccb0
    c7a8:	0000c7e4 	.word	0x0000c7e4
    c7ac:	0000c7e4 	.word	0x0000c7e4
    c7b0:	0000c7e4 	.word	0x0000c7e4
    c7b4:	0000c7e4 	.word	0x0000c7e4
    c7b8:	0000c7e4 	.word	0x0000c7e4
    c7bc:	0000cc94 	.word	0x0000cc94
    c7c0:	0000ccf8 	.word	0x0000ccf8
    c7c4:	0000c7e4 	.word	0x0000c7e4
    c7c8:	0000c7e4 	.word	0x0000c7e4
    c7cc:	0000cd3c 	.word	0x0000cd3c
    c7d0:	0000c7e4 	.word	0x0000c7e4
    c7d4:	0000cd68 	.word	0x0000cd68
    c7d8:	0000c7e4 	.word	0x0000c7e4
    c7dc:	0000c7e4 	.word	0x0000c7e4
    c7e0:	0000cd7c 	.word	0x0000cd7c
    c7e4:	e1a0800e 	mov	r8, lr
    c7e8:	e59d2008 	ldr	r2, [sp, #8]
    c7ec:	e28aa001 	add	sl, sl, #1
    c7f0:	e5973000 	ldr	r3, [r7]
    c7f4:	e5922000 	ldr	r2, [r2]
    c7f8:	e1530002 	cmp	r3, r2
    c7fc:	b2833001 	addlt	r3, r3, #1
    c800:	b5992000 	ldrlt	r2, [r9]
    c804:	b5873000 	strlt	r3, [r7]
    c808:	b4c20001 	strblt	r0, [r2], #1
    c80c:	b5892000 	strlt	r2, [r9]
    c810:	eaffff99 	b	c67c <_doprnt.constprop.2+0x28>
    c814:	e3a0c001 	mov	ip, #1
    c818:	eaffffa6 	b	c6b8 <_doprnt.constprop.2+0x64>
    c81c:	e58d2004 	str	r2, [sp, #4]
    c820:	eaffffa4 	b	c6b8 <_doprnt.constprop.2+0x64>
    c824:	e3a02001 	mov	r2, #1
    c828:	e58d200c 	str	r2, [sp, #12]
    c82c:	eaffffa1 	b	c6b8 <_doprnt.constprop.2+0x64>
    c830:	e1a0000a 	mov	r0, sl
    c834:	e28dd074 	add	sp, sp, #116	; 0x74
    c838:	e8bd8ff0 	pop	{r4, r5, r6, r7, r8, r9, sl, fp, pc}
    c83c:	e2888002 	add	r8, r8, #2
    c840:	eaffffe8 	b	c7e8 <_doprnt.constprop.2+0x194>
    c844:	e5d82001 	ldrb	r2, [r8, #1]
    c848:	e352006c 	cmp	r2, #108	; 0x6c
    c84c:	12888001 	addne	r8, r8, #1
    c850:	13a03003 	movne	r3, #3
    c854:	05d82002 	ldrbeq	r2, [r8, #2]
    c858:	03a03004 	moveq	r3, #4
    c85c:	02888002 	addeq	r8, r8, #2
    c860:	eaffffba 	b	c750 <_doprnt.constprop.2+0xfc>
    c864:	e5d82001 	ldrb	r2, [r8, #1]
    c868:	e2883001 	add	r3, r8, #1
    c86c:	e352002a 	cmp	r2, #42	; 0x2a
    c870:	0a000187 	beq	ce94 <_doprnt.constprop.2+0x840>
    c874:	e2425030 	sub	r5, r2, #48	; 0x30
    c878:	e1a08003 	mov	r8, r3
    c87c:	e3550009 	cmp	r5, #9
    c880:	e3a05000 	mov	r5, #0
    c884:	93a0600a 	movls	r6, #10
    c888:	8affffab 	bhi	c73c <_doprnt.constprop.2+0xe8>
    c88c:	e0252596 	mla	r5, r6, r5, r2
    c890:	e5f82001 	ldrb	r2, [r8, #1]!
    c894:	e2455030 	sub	r5, r5, #48	; 0x30
    c898:	e2423030 	sub	r3, r2, #48	; 0x30
    c89c:	e3530009 	cmp	r3, #9
    c8a0:	9afffff9 	bls	c88c <_doprnt.constprop.2+0x238>
    c8a4:	eaffffa4 	b	c73c <_doprnt.constprop.2+0xe8>
    c8a8:	e5d82001 	ldrb	r2, [r8, #1]
    c8ac:	e3520068 	cmp	r2, #104	; 0x68
    c8b0:	12888001 	addne	r8, r8, #1
    c8b4:	13a03001 	movne	r3, #1
    c8b8:	05d82002 	ldrbeq	r2, [r8, #2]
    c8bc:	03a03000 	moveq	r3, #0
    c8c0:	02888002 	addeq	r8, r8, #2
    c8c4:	eaffffa1 	b	c750 <_doprnt.constprop.2+0xfc>
    c8c8:	e3a06000 	mov	r6, #0
    c8cc:	e3a00001 	mov	r0, #1
    c8d0:	e1a02006 	mov	r2, r6
    c8d4:	e3a0e002 	mov	lr, #2
    c8d8:	e3530004 	cmp	r3, #4
    c8dc:	e2888001 	add	r8, r8, #1
    c8e0:	02811007 	addeq	r1, r1, #7
    c8e4:	03c11007 	biceq	r1, r1, #7
    c8e8:	15913000 	ldrne	r3, [r1]
    c8ec:	12811004 	addne	r1, r1, #4
    c8f0:	05913000 	ldreq	r3, [r1]
    c8f4:	02811008 	addeq	r1, r1, #8
    c8f8:	e58d1024 	str	r1, [sp, #36]	; 0x24
    c8fc:	e3530000 	cmp	r3, #0
    c900:	03a06000 	moveq	r6, #0
    c904:	12066001 	andne	r6, r6, #1
    c908:	e58d6014 	str	r6, [sp, #20]
    c90c:	e3560000 	cmp	r6, #0
    c910:	0a000170 	beq	ced8 <_doprnt.constprop.2+0x884>
    c914:	e3a01000 	mov	r1, #0
    c918:	e3a0c001 	mov	ip, #1
    c91c:	e58d1014 	str	r1, [sp, #20]
    c920:	e1a06001 	mov	r6, r1
    c924:	e58dc010 	str	ip, [sp, #16]
    c928:	e58d1020 	str	r1, [sp, #32]
    c92c:	e3520000 	cmp	r2, #0
    c930:	130fc4b4 	movwne	ip, #62644	; 0xf4b4
    c934:	1340c000 	movtne	ip, #0
    c938:	1a000000 	bne	c940 <_doprnt.constprop.2+0x2ec>
    c93c:	e59fc5b0 	ldr	ip, [pc, #1456]	; cef4 <_doprnt.constprop.2+0x8a0>
    c940:	e3500000 	cmp	r0, #0
    c944:	e3a02000 	mov	r2, #0
    c948:	e5cd204c 	strb	r2, [sp, #76]	; 0x4c
    c94c:	1a000118 	bne	cdb4 <_doprnt.constprop.2+0x760>
    c950:	e732fe13 	udiv	r2, r3, lr
    c954:	e063329e 	mls	r3, lr, r2, r3
    c958:	e3520000 	cmp	r2, #0
    c95c:	e7dc3003 	ldrb	r3, [ip, r3]
    c960:	e5cd304d 	strb	r3, [sp, #77]	; 0x4d
    c964:	0a000160 	beq	ceec <_doprnt.constprop.2+0x898>
    c968:	e28d004d 	add	r0, sp, #77	; 0x4d
    c96c:	e3a03001 	mov	r3, #1
    c970:	e731fe12 	udiv	r1, r2, lr
    c974:	e062219e 	mls	r2, lr, r1, r2
    c978:	e2833001 	add	r3, r3, #1
    c97c:	e7dcb002 	ldrb	fp, [ip, r2]
    c980:	e2512000 	subs	r2, r1, #0
    c984:	e5e0b001 	strb	fp, [r0, #1]!
    c988:	1afffff8 	bne	c970 <_doprnt.constprop.2+0x31c>
    c98c:	e2833001 	add	r3, r3, #1
    c990:	e28d004c 	add	r0, sp, #76	; 0x4c
    c994:	e0803003 	add	r3, r0, r3
    c998:	e28d2027 	add	r2, sp, #39	; 0x27
    c99c:	e5731001 	ldrb	r1, [r3, #-1]!
    c9a0:	e1500003 	cmp	r0, r3
    c9a4:	e5e21001 	strb	r1, [r2, #1]!
    c9a8:	1afffffb 	bne	c99c <_doprnt.constprop.2+0x348>
    c9ac:	e28d0028 	add	r0, sp, #40	; 0x28
    c9b0:	fa000664 	blx	e348 <strlen>
    c9b4:	e3550000 	cmp	r5, #0
    c9b8:	b28d3028 	addlt	r3, sp, #40	; 0x28
    c9bc:	b58d301c 	strlt	r3, [sp, #28]
    c9c0:	ba0000a4 	blt	cc58 <_doprnt.constprop.2+0x604>
    c9c4:	e1500005 	cmp	r0, r5
    c9c8:	b0455000 	sublt	r5, r5, r0
    c9cc:	a3a05000 	movge	r5, #0
    c9d0:	e0806006 	add	r6, r0, r6
    c9d4:	e0866005 	add	r6, r6, r5
    c9d8:	e1560004 	cmp	r6, r4
    c9dc:	ba000105 	blt	cdf8 <_doprnt.constprop.2+0x7a4>
    c9e0:	e28d3028 	add	r3, sp, #40	; 0x28
    c9e4:	e1a04005 	mov	r4, r5
    c9e8:	e58d301c 	str	r3, [sp, #28]
    c9ec:	e3a0e000 	mov	lr, #0
    c9f0:	e3a03020 	mov	r3, #32
    c9f4:	e58d3004 	str	r3, [sp, #4]
    c9f8:	e59d2010 	ldr	r2, [sp, #16]
    c9fc:	e3520000 	cmp	r2, #0
    ca00:	0a000016 	beq	ca60 <_doprnt.constprop.2+0x40c>
    ca04:	e59d1008 	ldr	r1, [sp, #8]
    ca08:	e5973000 	ldr	r3, [r7]
    ca0c:	e5911000 	ldr	r1, [r1]
    ca10:	e1510003 	cmp	r1, r3
    ca14:	da0000da 	ble	cd84 <_doprnt.constprop.2+0x730>
    ca18:	e599c000 	ldr	ip, [r9]
    ca1c:	e3520002 	cmp	r2, #2
    ca20:	e3a06030 	mov	r6, #48	; 0x30
    ca24:	e2835001 	add	r5, r3, #1
    ca28:	e5875000 	str	r5, [r7]
    ca2c:	e1a0200c 	mov	r2, ip
    ca30:	e4c26001 	strb	r6, [r2], #1
    ca34:	e5892000 	str	r2, [r9]
    ca38:	1a0000d3 	bne	cd8c <_doprnt.constprop.2+0x738>
    ca3c:	e1510005 	cmp	r1, r5
    ca40:	da000005 	ble	ca5c <_doprnt.constprop.2+0x408>
    ca44:	e2833002 	add	r3, r3, #2
    ca48:	e3a02078 	mov	r2, #120	; 0x78
    ca4c:	e5873000 	str	r3, [r7]
    ca50:	e28c3002 	add	r3, ip, #2
    ca54:	e5cc2001 	strb	r2, [ip, #1]
    ca58:	e5893000 	str	r3, [r9]
    ca5c:	e28aa002 	add	sl, sl, #2
    ca60:	e59d300c 	ldr	r3, [sp, #12]
    ca64:	e3530000 	cmp	r3, #0
    ca68:	1a000014 	bne	cac0 <_doprnt.constprop.2+0x46c>
    ca6c:	e35e0000 	cmp	lr, #0
    ca70:	da000012 	ble	cac0 <_doprnt.constprop.2+0x46c>
    ca74:	e59d2008 	ldr	r2, [sp, #8]
    ca78:	e1a06003 	mov	r6, r3
    ca7c:	e5991000 	ldr	r1, [r9]
    ca80:	e5925000 	ldr	r5, [r2]
    ca84:	e59db004 	ldr	fp, [sp, #4]
    ca88:	e5972000 	ldr	r2, [r7]
    ca8c:	e1550002 	cmp	r5, r2
    ca90:	e281c001 	add	ip, r1, #1
    ca94:	c5c1b000 	strbgt	fp, [r1]
    ca98:	e2833001 	add	r3, r3, #1
    ca9c:	c589c000 	strgt	ip, [r9]
    caa0:	c2822001 	addgt	r2, r2, #1
    caa4:	c1a0100c 	movgt	r1, ip
    caa8:	c3a06001 	movgt	r6, #1
    caac:	e153000e 	cmp	r3, lr
    cab0:	1afffff5 	bne	ca8c <_doprnt.constprop.2+0x438>
    cab4:	e08aa00e 	add	sl, sl, lr
    cab8:	e3560000 	cmp	r6, #0
    cabc:	15872000 	strne	r2, [r7]
    cac0:	e59d3014 	ldr	r3, [sp, #20]
    cac4:	e3530000 	cmp	r3, #0
    cac8:	1a0000df 	bne	ce4c <_doprnt.constprop.2+0x7f8>
    cacc:	e3540000 	cmp	r4, #0
    cad0:	da000013 	ble	cb24 <_doprnt.constprop.2+0x4d0>
    cad4:	e59d3008 	ldr	r3, [sp, #8]
    cad8:	e3a06000 	mov	r6, #0
    cadc:	e5991000 	ldr	r1, [r9]
    cae0:	e3a0b030 	mov	fp, #48	; 0x30
    cae4:	e5935000 	ldr	r5, [r3]
    cae8:	e1a03006 	mov	r3, r6
    caec:	e5972000 	ldr	r2, [r7]
    caf0:	e1550002 	cmp	r5, r2
    caf4:	e281c001 	add	ip, r1, #1
    caf8:	c5c1b000 	strbgt	fp, [r1]
    cafc:	e2833001 	add	r3, r3, #1
    cb00:	c589c000 	strgt	ip, [r9]
    cb04:	c2822001 	addgt	r2, r2, #1
    cb08:	c1a0100c 	movgt	r1, ip
    cb0c:	c3a06001 	movgt	r6, #1
    cb10:	e1530004 	cmp	r3, r4
    cb14:	1afffff5 	bne	caf0 <_doprnt.constprop.2+0x49c>
    cb18:	e08aa003 	add	sl, sl, r3
    cb1c:	e3560000 	cmp	r6, #0
    cb20:	15872000 	strne	r2, [r7]
    cb24:	e3500000 	cmp	r0, #0
    cb28:	da000015 	ble	cb84 <_doprnt.constprop.2+0x530>
    cb2c:	e59d3008 	ldr	r3, [sp, #8]
    cb30:	e3a04000 	mov	r4, #0
    cb34:	e5991000 	ldr	r1, [r9]
    cb38:	e5936000 	ldr	r6, [r3]
    cb3c:	e59d301c 	ldr	r3, [sp, #28]
    cb40:	e5972000 	ldr	r2, [r7]
    cb44:	e0835000 	add	r5, r3, r0
    cb48:	e1560002 	cmp	r6, r2
    cb4c:	e281c001 	add	ip, r1, #1
    cb50:	da000005 	ble	cb6c <_doprnt.constprop.2+0x518>
    cb54:	e5d34000 	ldrb	r4, [r3]
    cb58:	e2822001 	add	r2, r2, #1
    cb5c:	e5c14000 	strb	r4, [r1]
    cb60:	e3a04001 	mov	r4, #1
    cb64:	e589c000 	str	ip, [r9]
    cb68:	e1a0100c 	mov	r1, ip
    cb6c:	e2833001 	add	r3, r3, #1
    cb70:	e1550003 	cmp	r5, r3
    cb74:	1afffff3 	bne	cb48 <_doprnt.constprop.2+0x4f4>
    cb78:	e08aa000 	add	sl, sl, r0
    cb7c:	e3540000 	cmp	r4, #0
    cb80:	15872000 	strne	r2, [r7]
    cb84:	e59d500c 	ldr	r5, [sp, #12]
    cb88:	e3550000 	cmp	r5, #0
    cb8c:	0a000015 	beq	cbe8 <_doprnt.constprop.2+0x594>
    cb90:	e35e0000 	cmp	lr, #0
    cb94:	da000013 	ble	cbe8 <_doprnt.constprop.2+0x594>
    cb98:	e59d3008 	ldr	r3, [sp, #8]
    cb9c:	e3a04000 	mov	r4, #0
    cba0:	e5991000 	ldr	r1, [r9]
    cba4:	e593c000 	ldr	ip, [r3]
    cba8:	e1a03004 	mov	r3, r4
    cbac:	e5972000 	ldr	r2, [r7]
    cbb0:	e59d6004 	ldr	r6, [sp, #4]
    cbb4:	e15c0002 	cmp	ip, r2
    cbb8:	e2810001 	add	r0, r1, #1
    cbbc:	c5c16000 	strbgt	r6, [r1]
    cbc0:	e2833001 	add	r3, r3, #1
    cbc4:	c5890000 	strgt	r0, [r9]
    cbc8:	c2822001 	addgt	r2, r2, #1
    cbcc:	c1a01000 	movgt	r1, r0
    cbd0:	c1a04005 	movgt	r4, r5
    cbd4:	e15e0003 	cmp	lr, r3
    cbd8:	1afffff5 	bne	cbb4 <_doprnt.constprop.2+0x560>
    cbdc:	e08aa00e 	add	sl, sl, lr
    cbe0:	e3540000 	cmp	r4, #0
    cbe4:	15872000 	strne	r2, [r7]
    cbe8:	e59d1024 	ldr	r1, [sp, #36]	; 0x24
    cbec:	eafffea2 	b	c67c <_doprnt.constprop.2+0x28>
    cbf0:	e3a02001 	mov	r2, #1
    cbf4:	e35c0001 	cmp	ip, #1
    cbf8:	e3a00004 	mov	r0, #4
    cbfc:	e3a06000 	mov	r6, #0
    cc00:	e3a0e010 	mov	lr, #16
    cc04:	03a0c003 	moveq	ip, #3
    cc08:	eaffff32 	b	c8d8 <_doprnt.constprop.2+0x284>
    cc0c:	e5913000 	ldr	r3, [r1]
    cc10:	e3a02000 	mov	r2, #0
    cc14:	e5cd2029 	strb	r2, [sp, #41]	; 0x29
    cc18:	e2812004 	add	r2, r1, #4
    cc1c:	e5cd3028 	strb	r3, [sp, #40]	; 0x28
    cc20:	e28d3028 	add	r3, sp, #40	; 0x28
    cc24:	e58d2024 	str	r2, [sp, #36]	; 0x24
    cc28:	e1a00003 	mov	r0, r3
    cc2c:	e58d301c 	str	r3, [sp, #28]
    cc30:	e2888001 	add	r8, r8, #1
    cc34:	fa0005c3 	blx	e348 <strlen>
    cc38:	e3550000 	cmp	r5, #0
    cc3c:	ba00008f 	blt	ce80 <_doprnt.constprop.2+0x82c>
    cc40:	e1500005 	cmp	r0, r5
    cc44:	e3a06000 	mov	r6, #0
    cc48:	e58d6014 	str	r6, [sp, #20]
    cc4c:	a1a00005 	movge	r0, r5
    cc50:	e58d6020 	str	r6, [sp, #32]
    cc54:	e58d6010 	str	r6, [sp, #16]
    cc58:	e0806006 	add	r6, r0, r6
    cc5c:	e1560004 	cmp	r6, r4
    cc60:	ba00004b 	blt	cd94 <_doprnt.constprop.2+0x740>
    cc64:	e59d3018 	ldr	r3, [sp, #24]
    cc68:	e3a05000 	mov	r5, #0
    cc6c:	e59d2004 	ldr	r2, [sp, #4]
    cc70:	e1a04005 	mov	r4, r5
    cc74:	e3520030 	cmp	r2, #48	; 0x30
    cc78:	13a03000 	movne	r3, #0
    cc7c:	02033001 	andeq	r3, r3, #1
    cc80:	e3530000 	cmp	r3, #0
    cc84:	01a0e004 	moveq	lr, r4
    cc88:	13a0e000 	movne	lr, #0
    cc8c:	01a04005 	moveq	r4, r5
    cc90:	eaffff58 	b	c9f8 <_doprnt.constprop.2+0x3a4>
    cc94:	e35c0001 	cmp	ip, #1
    cc98:	0a000082 	beq	cea8 <_doprnt.constprop.2+0x854>
    cc9c:	e3a06000 	mov	r6, #0
    cca0:	e3a00003 	mov	r0, #3
    cca4:	e1a02006 	mov	r2, r6
    cca8:	e3a0e008 	mov	lr, #8
    ccac:	eaffff09 	b	c8d8 <_doprnt.constprop.2+0x284>
    ccb0:	e3530004 	cmp	r3, #4
    ccb4:	02811007 	addeq	r1, r1, #7
    ccb8:	12812004 	addne	r2, r1, #4
    ccbc:	03c11007 	biceq	r1, r1, #7
    ccc0:	15913000 	ldrne	r3, [r1]
    ccc4:	02812008 	addeq	r2, r1, #8
    ccc8:	05913000 	ldreq	r3, [r1]
    cccc:	e58d2024 	str	r2, [sp, #36]	; 0x24
    ccd0:	e3530000 	cmp	r3, #0
    ccd4:	a3a06000 	movge	r6, #0
    ccd8:	a58d6014 	strge	r6, [sp, #20]
    ccdc:	a58d6020 	strge	r6, [sp, #32]
    cce0:	ba000076 	blt	cec0 <_doprnt.constprop.2+0x86c>
    cce4:	e3a00000 	mov	r0, #0
    cce8:	e2888001 	add	r8, r8, #1
    ccec:	e58d0010 	str	r0, [sp, #16]
    ccf0:	e3a0e00a 	mov	lr, #10
    ccf4:	eaffff10 	b	c93c <_doprnt.constprop.2+0x2e8>
    ccf8:	e5913000 	ldr	r3, [r1]
    ccfc:	e3a00004 	mov	r0, #4
    cd00:	e0812000 	add	r2, r1, r0
    cd04:	e2888001 	add	r8, r8, #1
    cd08:	e58d2024 	str	r2, [sp, #36]	; 0x24
    cd0c:	e1a04000 	mov	r4, r0
    cd10:	e3a0e010 	mov	lr, #16
    cd14:	e3a02000 	mov	r2, #0
    cd18:	e3a01030 	mov	r1, #48	; 0x30
    cd1c:	e58d1004 	str	r1, [sp, #4]
    cd20:	e3a01000 	mov	r1, #0
    cd24:	e3a0c002 	mov	ip, #2
    cd28:	e58d1014 	str	r1, [sp, #20]
    cd2c:	e1a06001 	mov	r6, r1
    cd30:	e58dc010 	str	ip, [sp, #16]
    cd34:	e58d1020 	str	r1, [sp, #32]
    cd38:	eafffefb 	b	c92c <_doprnt.constprop.2+0x2d8>
    cd3c:	e5913000 	ldr	r3, [r1]
    cd40:	e2811004 	add	r1, r1, #4
    cd44:	e58d1024 	str	r1, [sp, #36]	; 0x24
    cd48:	e1a02003 	mov	r2, r3
    cd4c:	e30f34d4 	movw	r3, #62676	; 0xf4d4
    cd50:	e3403000 	movt	r3, #0
    cd54:	e3520000 	cmp	r2, #0
    cd58:	01a02003 	moveq	r2, r3
    cd5c:	e58d201c 	str	r2, [sp, #28]
    cd60:	e1a00002 	mov	r0, r2
    cd64:	eaffffb1 	b	cc30 <_doprnt.constprop.2+0x5dc>
    cd68:	e3a00000 	mov	r0, #0
    cd6c:	e3a0e00a 	mov	lr, #10
    cd70:	e1a06000 	mov	r6, r0
    cd74:	e1a02000 	mov	r2, r0
    cd78:	eafffed6 	b	c8d8 <_doprnt.constprop.2+0x284>
    cd7c:	e3a02000 	mov	r2, #0
    cd80:	eaffff9b 	b	cbf4 <_doprnt.constprop.2+0x5a0>
    cd84:	e3520002 	cmp	r2, #2
    cd88:	0affff33 	beq	ca5c <_doprnt.constprop.2+0x408>
    cd8c:	e28aa001 	add	sl, sl, #1
    cd90:	eaffff32 	b	ca60 <_doprnt.constprop.2+0x40c>
    cd94:	e59d3018 	ldr	r3, [sp, #24]
    cd98:	e3a05000 	mov	r5, #0
    cd9c:	e59d2004 	ldr	r2, [sp, #4]
    cda0:	e3520030 	cmp	r2, #48	; 0x30
    cda4:	13a03000 	movne	r3, #0
    cda8:	02033001 	andeq	r3, r3, #1
    cdac:	e0444006 	sub	r4, r4, r6
    cdb0:	eaffffb2 	b	cc80 <_doprnt.constprop.2+0x62c>
    cdb4:	e1b02033 	lsrs	r2, r3, r0
    cdb8:	e3a01001 	mov	r1, #1
    cdbc:	e1a0b011 	lsl	fp, r1, r0
    cdc0:	e24bb001 	sub	fp, fp, #1
    cdc4:	e003300b 	and	r3, r3, fp
    cdc8:	e7dc3003 	ldrb	r3, [ip, r3]
    cdcc:	e5cd304d 	strb	r3, [sp, #77]	; 0x4d
    cdd0:	e1a03001 	mov	r3, r1
    cdd4:	0afffeec 	beq	c98c <_doprnt.constprop.2+0x338>
    cdd8:	e28d104d 	add	r1, sp, #77	; 0x4d
    cddc:	e002e00b 	and	lr, r2, fp
    cde0:	e2833001 	add	r3, r3, #1
    cde4:	e1b02032 	lsrs	r2, r2, r0
    cde8:	e7dce00e 	ldrb	lr, [ip, lr]
    cdec:	e5e1e001 	strb	lr, [r1, #1]!
    cdf0:	1afffff9 	bne	cddc <_doprnt.constprop.2+0x788>
    cdf4:	eafffee4 	b	c98c <_doprnt.constprop.2+0x338>
    cdf8:	e28d3028 	add	r3, sp, #40	; 0x28
    cdfc:	e3a02020 	mov	r2, #32
    ce00:	e58d301c 	str	r3, [sp, #28]
    ce04:	e3a03000 	mov	r3, #0
    ce08:	e58d2004 	str	r2, [sp, #4]
    ce0c:	eaffffe6 	b	cdac <_doprnt.constprop.2+0x758>
    ce10:	e5914000 	ldr	r4, [r1]
    ce14:	e2811004 	add	r1, r1, #4
    ce18:	e5d82001 	ldrb	r2, [r8, #1]
    ce1c:	e3540000 	cmp	r4, #0
    ce20:	a1a08003 	movge	r8, r3
    ce24:	aafffe39 	bge	c710 <_doprnt.constprop.2+0xbc>
    ce28:	e2644000 	rsb	r4, r4, #0
    ce2c:	e1a08003 	mov	r8, r3
    ce30:	e3a03000 	mov	r3, #0
    ce34:	e58d3018 	str	r3, [sp, #24]
    ce38:	e3a03001 	mov	r3, #1
    ce3c:	e58d300c 	str	r3, [sp, #12]
    ce40:	e3a03020 	mov	r3, #32
    ce44:	e58d3004 	str	r3, [sp, #4]
    ce48:	eafffe38 	b	c730 <_doprnt.constprop.2+0xdc>
    ce4c:	e59d2008 	ldr	r2, [sp, #8]
    ce50:	e5973000 	ldr	r3, [r7]
    ce54:	e5922000 	ldr	r2, [r2]
    ce58:	e1530002 	cmp	r3, r2
    ce5c:	aa000005 	bge	ce78 <_doprnt.constprop.2+0x824>
    ce60:	e5992000 	ldr	r2, [r9]
    ce64:	e2833001 	add	r3, r3, #1
    ce68:	e5873000 	str	r3, [r7]
    ce6c:	e5dd3020 	ldrb	r3, [sp, #32]
    ce70:	e4c23001 	strb	r3, [r2], #1
    ce74:	e5892000 	str	r2, [r9]
    ce78:	e28aa001 	add	sl, sl, #1
    ce7c:	eaffff12 	b	cacc <_doprnt.constprop.2+0x478>
    ce80:	e3a06000 	mov	r6, #0
    ce84:	e58d6014 	str	r6, [sp, #20]
    ce88:	e58d6020 	str	r6, [sp, #32]
    ce8c:	e58d6010 	str	r6, [sp, #16]
    ce90:	eaffff70 	b	cc58 <_doprnt.constprop.2+0x604>
    ce94:	e5915000 	ldr	r5, [r1]
    ce98:	e2888002 	add	r8, r8, #2
    ce9c:	e5d82000 	ldrb	r2, [r8]
    cea0:	e2811004 	add	r1, r1, #4
    cea4:	eafffe24 	b	c73c <_doprnt.constprop.2+0xe8>
    cea8:	e1a0600c 	mov	r6, ip
    ceac:	e3a00003 	mov	r0, #3
    ceb0:	e3a0e008 	mov	lr, #8
    ceb4:	e3a02000 	mov	r2, #0
    ceb8:	e3a0c002 	mov	ip, #2
    cebc:	eafffe85 	b	c8d8 <_doprnt.constprop.2+0x284>
    cec0:	e2633000 	rsb	r3, r3, #0
    cec4:	e3a06001 	mov	r6, #1
    cec8:	e58d6014 	str	r6, [sp, #20]
    cecc:	e3a0202d 	mov	r2, #45	; 0x2d
    ced0:	e58d2020 	str	r2, [sp, #32]
    ced4:	eaffff82 	b	cce4 <_doprnt.constprop.2+0x690>
    ced8:	e35c0003 	cmp	ip, #3
    cedc:	0affff8f 	beq	cd20 <_doprnt.constprop.2+0x6cc>
    cee0:	e58d6020 	str	r6, [sp, #32]
    cee4:	e58d6010 	str	r6, [sp, #16]
    cee8:	eafffe8f 	b	c92c <_doprnt.constprop.2+0x2d8>
    ceec:	e3a03001 	mov	r3, #1
    cef0:	eafffea5 	b	c98c <_doprnt.constprop.2+0x338>
    cef4:	0000f4c4 	.word	0x0000f4c4

0000cef8 <_doprnt.constprop.1>:
    cef8:	e92d4ff0 	push	{r4, r5, r6, r7, r8, r9, sl, fp, lr}
    cefc:	e3017378 	movw	r7, #4984	; 0x1378
    cf00:	e3407002 	movt	r7, #2
    cf04:	e30f55b0 	movw	r5, #62896	; 0xf5b0
    cf08:	e3405000 	movt	r5, #0
    cf0c:	e24dd074 	sub	sp, sp, #116	; 0x74
    cf10:	e1a0a000 	mov	sl, r0
    cf14:	e1a09001 	mov	r9, r1
    cf18:	e58d2010 	str	r2, [sp, #16]
    cf1c:	e3a03000 	mov	r3, #0
    cf20:	e58d3004 	str	r3, [sp, #4]
    cf24:	e5da1000 	ldrb	r1, [sl]
    cf28:	e3510000 	cmp	r1, #0
    cf2c:	0a000074 	beq	d104 <_doprnt.constprop.1+0x20c>
    cf30:	e3510025 	cmp	r1, #37	; 0x25
    cf34:	128aa001 	addne	sl, sl, #1
    cf38:	1a000054 	bne	d090 <_doprnt.constprop.1+0x198>
    cf3c:	e5da3001 	ldrb	r3, [sl, #1]
    cf40:	e28a0001 	add	r0, sl, #1
    cf44:	e3530025 	cmp	r3, #37	; 0x25
    cf48:	0a000070 	beq	d110 <_doprnt.constprop.1+0x218>
    cf4c:	e1a0c000 	mov	ip, r0
    cf50:	e3a02000 	mov	r2, #0
    cf54:	e58d200c 	str	r2, [sp, #12]
    cf58:	e3a03020 	mov	r3, #32
    cf5c:	e58d3008 	str	r3, [sp, #8]
    cf60:	e5dc3000 	ldrb	r3, [ip]
    cf64:	e1a0a00c 	mov	sl, ip
    cf68:	e28cc001 	add	ip, ip, #1
    cf6c:	e353002d 	cmp	r3, #45	; 0x2d
    cf70:	0a000060 	beq	d0f8 <_doprnt.constprop.1+0x200>
    cf74:	e3530030 	cmp	r3, #48	; 0x30
    cf78:	0a00005c 	beq	d0f0 <_doprnt.constprop.1+0x1f8>
    cf7c:	e3530023 	cmp	r3, #35	; 0x23
    cf80:	0a000058 	beq	d0e8 <_doprnt.constprop.1+0x1f0>
    cf84:	e353002a 	cmp	r3, #42	; 0x2a
    cf88:	0a00020e 	beq	d7c8 <_doprnt.constprop.1+0x8d0>
    cf8c:	e243c030 	sub	ip, r3, #48	; 0x30
    cf90:	e3a04000 	mov	r4, #0
    cf94:	e35c0009 	cmp	ip, #9
    cf98:	93a0e00a 	movls	lr, #10
    cf9c:	8a000005 	bhi	cfb8 <_doprnt.constprop.1+0xc0>
    cfa0:	e024349e 	mla	r4, lr, r4, r3
    cfa4:	e5fa3001 	ldrb	r3, [sl, #1]!
    cfa8:	e2444030 	sub	r4, r4, #48	; 0x30
    cfac:	e243c030 	sub	ip, r3, #48	; 0x30
    cfb0:	e35c0009 	cmp	ip, #9
    cfb4:	9afffff9 	bls	cfa0 <_doprnt.constprop.1+0xa8>
    cfb8:	e59dc00c 	ldr	ip, [sp, #12]
    cfbc:	e35c0000 	cmp	ip, #0
    cfc0:	e59dc008 	ldr	ip, [sp, #8]
    cfc4:	13a0c020 	movne	ip, #32
    cfc8:	e58dc008 	str	ip, [sp, #8]
    cfcc:	03a0c001 	moveq	ip, #1
    cfd0:	13a0c000 	movne	ip, #0
    cfd4:	e58dc018 	str	ip, [sp, #24]
    cfd8:	e353002e 	cmp	r3, #46	; 0x2e
    cfdc:	13e06000 	mvnne	r6, #0
    cfe0:	0a000054 	beq	d138 <_doprnt.constprop.1+0x240>
    cfe4:	e353006c 	cmp	r3, #108	; 0x6c
    cfe8:	0a00004a 	beq	d118 <_doprnt.constprop.1+0x220>
    cfec:	e3530068 	cmp	r3, #104	; 0x68
    cff0:	13a0e002 	movne	lr, #2
    cff4:	0a000060 	beq	d17c <_doprnt.constprop.1+0x284>
    cff8:	e2433058 	sub	r3, r3, #88	; 0x58
    cffc:	e3530020 	cmp	r3, #32
    d000:	979ff103 	ldrls	pc, [pc, r3, lsl #2]
    d004:	ea000020 	b	d08c <_doprnt.constprop.1+0x194>
    d008:	0000d598 	.word	0x0000d598
    d00c:	0000d08c 	.word	0x0000d08c
    d010:	0000d08c 	.word	0x0000d08c
    d014:	0000d08c 	.word	0x0000d08c
    d018:	0000d08c 	.word	0x0000d08c
    d01c:	0000d08c 	.word	0x0000d08c
    d020:	0000d08c 	.word	0x0000d08c
    d024:	0000d08c 	.word	0x0000d08c
    d028:	0000d08c 	.word	0x0000d08c
    d02c:	0000d08c 	.word	0x0000d08c
    d030:	0000d19c 	.word	0x0000d19c
    d034:	0000d5b4 	.word	0x0000d5b4
    d038:	0000d65c 	.word	0x0000d65c
    d03c:	0000d08c 	.word	0x0000d08c
    d040:	0000d08c 	.word	0x0000d08c
    d044:	0000d08c 	.word	0x0000d08c
    d048:	0000d08c 	.word	0x0000d08c
    d04c:	0000d65c 	.word	0x0000d65c
    d050:	0000d08c 	.word	0x0000d08c
    d054:	0000d08c 	.word	0x0000d08c
    d058:	0000d08c 	.word	0x0000d08c
    d05c:	0000d08c 	.word	0x0000d08c
    d060:	0000d08c 	.word	0x0000d08c
    d064:	0000d640 	.word	0x0000d640
    d068:	0000d6a4 	.word	0x0000d6a4
    d06c:	0000d08c 	.word	0x0000d08c
    d070:	0000d08c 	.word	0x0000d08c
    d074:	0000d6e4 	.word	0x0000d6e4
    d078:	0000d08c 	.word	0x0000d08c
    d07c:	0000d710 	.word	0x0000d710
    d080:	0000d08c 	.word	0x0000d08c
    d084:	0000d08c 	.word	0x0000d08c
    d088:	0000d724 	.word	0x0000d724
    d08c:	e1a0a000 	mov	sl, r0
    d090:	e5973000 	ldr	r3, [r7]
    d094:	e5952000 	ldr	r2, [r5]
    d098:	e1530002 	cmp	r3, r2
    d09c:	aa00000d 	bge	d0d8 <_doprnt.constprop.1+0x1e0>
    d0a0:	e2730000 	rsbs	r0, r3, #0
    d0a4:	e6ef2073 	uxtb	r2, r3
    d0a8:	e6ef0070 	uxtb	r0, r0
    d0ac:	e2833001 	add	r3, r3, #1
    d0b0:	52602000 	rsbpl	r2, r0, #0
    d0b4:	e5873000 	str	r3, [r7]
    d0b8:	e21330ff 	ands	r3, r3, #255	; 0xff
    d0bc:	e0872002 	add	r2, r7, r2
    d0c0:	e5c21004 	strb	r1, [r2, #4]
    d0c4:	1a000003 	bne	d0d8 <_doprnt.constprop.1+0x1e0>
    d0c8:	e5c73104 	strb	r3, [r7, #260]	; 0x104
    d0cc:	e59f0808 	ldr	r0, [pc, #2056]	; d8dc <_doprnt.constprop.1+0x9e4>
    d0d0:	e59d3010 	ldr	r3, [sp, #16]
    d0d4:	e12fff33 	blx	r3
    d0d8:	e59d3004 	ldr	r3, [sp, #4]
    d0dc:	e2833001 	add	r3, r3, #1
    d0e0:	e58d3004 	str	r3, [sp, #4]
    d0e4:	eaffff8e 	b	cf24 <_doprnt.constprop.1+0x2c>
    d0e8:	e3a02001 	mov	r2, #1
    d0ec:	eaffff9b 	b	cf60 <_doprnt.constprop.1+0x68>
    d0f0:	e58d3008 	str	r3, [sp, #8]
    d0f4:	eaffff99 	b	cf60 <_doprnt.constprop.1+0x68>
    d0f8:	e3a03001 	mov	r3, #1
    d0fc:	e58d300c 	str	r3, [sp, #12]
    d100:	eaffff96 	b	cf60 <_doprnt.constprop.1+0x68>
    d104:	e59d0004 	ldr	r0, [sp, #4]
    d108:	e28dd074 	add	sp, sp, #116	; 0x74
    d10c:	e8bd8ff0 	pop	{r4, r5, r6, r7, r8, r9, sl, fp, pc}
    d110:	e28aa002 	add	sl, sl, #2
    d114:	eaffffdd 	b	d090 <_doprnt.constprop.1+0x198>
    d118:	e5da3001 	ldrb	r3, [sl, #1]
    d11c:	e353006c 	cmp	r3, #108	; 0x6c
    d120:	128aa001 	addne	sl, sl, #1
    d124:	13a0e003 	movne	lr, #3
    d128:	05da3002 	ldrbeq	r3, [sl, #2]
    d12c:	03a0e004 	moveq	lr, #4
    d130:	028aa002 	addeq	sl, sl, #2
    d134:	eaffffaf 	b	cff8 <_doprnt.constprop.1+0x100>
    d138:	e5da3001 	ldrb	r3, [sl, #1]
    d13c:	e28ac001 	add	ip, sl, #1
    d140:	e353002a 	cmp	r3, #42	; 0x2a
    d144:	0a0001cb 	beq	d878 <_doprnt.constprop.1+0x980>
    d148:	e243e030 	sub	lr, r3, #48	; 0x30
    d14c:	e1a0a00c 	mov	sl, ip
    d150:	e35e0009 	cmp	lr, #9
    d154:	e3a06000 	mov	r6, #0
    d158:	93a0e00a 	movls	lr, #10
    d15c:	8affffa0 	bhi	cfe4 <_doprnt.constprop.1+0xec>
    d160:	e026369e 	mla	r6, lr, r6, r3
    d164:	e5fa3001 	ldrb	r3, [sl, #1]!
    d168:	e2466030 	sub	r6, r6, #48	; 0x30
    d16c:	e243c030 	sub	ip, r3, #48	; 0x30
    d170:	e35c0009 	cmp	ip, #9
    d174:	9afffff9 	bls	d160 <_doprnt.constprop.1+0x268>
    d178:	eaffff99 	b	cfe4 <_doprnt.constprop.1+0xec>
    d17c:	e5da3001 	ldrb	r3, [sl, #1]
    d180:	e3530068 	cmp	r3, #104	; 0x68
    d184:	128aa001 	addne	sl, sl, #1
    d188:	13a0e001 	movne	lr, #1
    d18c:	05da3002 	ldrbeq	r3, [sl, #2]
    d190:	03a0e000 	moveq	lr, #0
    d194:	028aa002 	addeq	sl, sl, #2
    d198:	eaffff96 	b	cff8 <_doprnt.constprop.1+0x100>
    d19c:	e3a00000 	mov	r0, #0
    d1a0:	e3a01001 	mov	r1, #1
    d1a4:	e1a03000 	mov	r3, r0
    d1a8:	e3a0c002 	mov	ip, #2
    d1ac:	e35e0004 	cmp	lr, #4
    d1b0:	e28aa001 	add	sl, sl, #1
    d1b4:	02898007 	addeq	r8, r9, #7
    d1b8:	12898004 	addne	r8, r9, #4
    d1bc:	03c88007 	biceq	r8, r8, #7
    d1c0:	1599e000 	ldrne	lr, [r9]
    d1c4:	0598e000 	ldreq	lr, [r8]
    d1c8:	02888008 	addeq	r8, r8, #8
    d1cc:	e58d8024 	str	r8, [sp, #36]	; 0x24
    d1d0:	e35e0000 	cmp	lr, #0
    d1d4:	03a09000 	moveq	r9, #0
    d1d8:	12009001 	andne	r9, r0, #1
    d1dc:	e3590000 	cmp	r9, #0
    d1e0:	0a0001b5 	beq	d8bc <_doprnt.constprop.1+0x9c4>
    d1e4:	e3a09000 	mov	r9, #0
    d1e8:	e3a02001 	mov	r2, #1
    d1ec:	e58d2014 	str	r2, [sp, #20]
    d1f0:	e1a08009 	mov	r8, r9
    d1f4:	e58d9020 	str	r9, [sp, #32]
    d1f8:	e3530000 	cmp	r3, #0
    d1fc:	130f04b4 	movwne	r0, #62644	; 0xf4b4
    d200:	13400000 	movtne	r0, #0
    d204:	1a000000 	bne	d20c <_doprnt.constprop.1+0x314>
    d208:	e59f06d0 	ldr	r0, [pc, #1744]	; d8e0 <_doprnt.constprop.1+0x9e8>
    d20c:	e3510000 	cmp	r1, #0
    d210:	e3a03000 	mov	r3, #0
    d214:	e5cd304c 	strb	r3, [sp, #76]	; 0x4c
    d218:	1a000154 	bne	d770 <_doprnt.constprop.1+0x878>
    d21c:	e732fc1e 	udiv	r2, lr, ip
    d220:	e06ee29c 	mls	lr, ip, r2, lr
    d224:	e3520000 	cmp	r2, #0
    d228:	e7d0300e 	ldrb	r3, [r0, lr]
    d22c:	e5cd304d 	strb	r3, [sp, #77]	; 0x4d
    d230:	0a0001a7 	beq	d8d4 <_doprnt.constprop.1+0x9dc>
    d234:	e28de04d 	add	lr, sp, #77	; 0x4d
    d238:	e3a03001 	mov	r3, #1
    d23c:	e731fc12 	udiv	r1, r2, ip
    d240:	e062219c 	mls	r2, ip, r1, r2
    d244:	e2833001 	add	r3, r3, #1
    d248:	e7d0b002 	ldrb	fp, [r0, r2]
    d24c:	e2512000 	subs	r2, r1, #0
    d250:	e5eeb001 	strb	fp, [lr, #1]!
    d254:	1afffff8 	bne	d23c <_doprnt.constprop.1+0x344>
    d258:	e2833001 	add	r3, r3, #1
    d25c:	e28d004c 	add	r0, sp, #76	; 0x4c
    d260:	e0803003 	add	r3, r0, r3
    d264:	e28d2027 	add	r2, sp, #39	; 0x27
    d268:	e5731001 	ldrb	r1, [r3, #-1]!
    d26c:	e1530000 	cmp	r3, r0
    d270:	e5e21001 	strb	r1, [r2, #1]!
    d274:	1afffffb 	bne	d268 <_doprnt.constprop.1+0x370>
    d278:	e28d0028 	add	r0, sp, #40	; 0x28
    d27c:	fa000431 	blx	e348 <strlen>
    d280:	e3560000 	cmp	r6, #0
    d284:	e1a0b000 	mov	fp, r0
    d288:	b28d3028 	addlt	r3, sp, #40	; 0x28
    d28c:	b58d301c 	strlt	r3, [sp, #28]
    d290:	ba0000db 	blt	d604 <_doprnt.constprop.1+0x70c>
    d294:	e1500006 	cmp	r0, r6
    d298:	b0466000 	sublt	r6, r6, r0
    d29c:	a3a06000 	movge	r6, #0
    d2a0:	e08b8008 	add	r8, fp, r8
    d2a4:	e0888006 	add	r8, r8, r6
    d2a8:	e1580004 	cmp	r8, r4
    d2ac:	ba00013f 	blt	d7b0 <_doprnt.constprop.1+0x8b8>
    d2b0:	e28d3028 	add	r3, sp, #40	; 0x28
    d2b4:	e1a08006 	mov	r8, r6
    d2b8:	e58d301c 	str	r3, [sp, #28]
    d2bc:	e3a04000 	mov	r4, #0
    d2c0:	e3a03020 	mov	r3, #32
    d2c4:	e58d3008 	str	r3, [sp, #8]
    d2c8:	e59d3014 	ldr	r3, [sp, #20]
    d2cc:	e3530000 	cmp	r3, #0
    d2d0:	0a00002b 	beq	d384 <_doprnt.constprop.1+0x48c>
    d2d4:	e5973000 	ldr	r3, [r7]
    d2d8:	e5952000 	ldr	r2, [r5]
    d2dc:	e1530002 	cmp	r3, r2
    d2e0:	aa000113 	bge	d734 <_doprnt.constprop.1+0x83c>
    d2e4:	e2731000 	rsbs	r1, r3, #0
    d2e8:	e6ef2073 	uxtb	r2, r3
    d2ec:	e6ef1071 	uxtb	r1, r1
    d2f0:	e2833001 	add	r3, r3, #1
    d2f4:	52612000 	rsbpl	r2, r1, #0
    d2f8:	e3a00030 	mov	r0, #48	; 0x30
    d2fc:	e5873000 	str	r3, [r7]
    d300:	e21330ff 	ands	r3, r3, #255	; 0xff
    d304:	e0872002 	add	r2, r7, r2
    d308:	e5c20004 	strb	r0, [r2, #4]
    d30c:	1a000003 	bne	d320 <_doprnt.constprop.1+0x428>
    d310:	e5c73104 	strb	r3, [r7, #260]	; 0x104
    d314:	e59f05c0 	ldr	r0, [pc, #1472]	; d8dc <_doprnt.constprop.1+0x9e4>
    d318:	e59d3010 	ldr	r3, [sp, #16]
    d31c:	e12fff33 	blx	r3
    d320:	e59d3014 	ldr	r3, [sp, #20]
    d324:	e3530002 	cmp	r3, #2
    d328:	1a000104 	bne	d740 <_doprnt.constprop.1+0x848>
    d32c:	e5973000 	ldr	r3, [r7]
    d330:	e5952000 	ldr	r2, [r5]
    d334:	e1530002 	cmp	r3, r2
    d338:	aa00000e 	bge	d378 <_doprnt.constprop.1+0x480>
    d33c:	e2731000 	rsbs	r1, r3, #0
    d340:	e6ef2073 	uxtb	r2, r3
    d344:	e6ef1071 	uxtb	r1, r1
    d348:	e2833001 	add	r3, r3, #1
    d34c:	52612000 	rsbpl	r2, r1, #0
    d350:	e3a00078 	mov	r0, #120	; 0x78
    d354:	e5873000 	str	r3, [r7]
    d358:	e21330ff 	ands	r3, r3, #255	; 0xff
    d35c:	e0872002 	add	r2, r7, r2
    d360:	e5c20004 	strb	r0, [r2, #4]
    d364:	1a000003 	bne	d378 <_doprnt.constprop.1+0x480>
    d368:	e5c73104 	strb	r3, [r7, #260]	; 0x104
    d36c:	e59f0568 	ldr	r0, [pc, #1384]	; d8dc <_doprnt.constprop.1+0x9e4>
    d370:	e59d3010 	ldr	r3, [sp, #16]
    d374:	e12fff33 	blx	r3
    d378:	e59d3004 	ldr	r3, [sp, #4]
    d37c:	e2833002 	add	r3, r3, #2
    d380:	e58d3004 	str	r3, [sp, #4]
    d384:	e59d300c 	ldr	r3, [sp, #12]
    d388:	e3530000 	cmp	r3, #0
    d38c:	1a000021 	bne	d418 <_doprnt.constprop.1+0x520>
    d390:	e3540000 	cmp	r4, #0
    d394:	da00001f 	ble	d418 <_doprnt.constprop.1+0x520>
    d398:	e58d8014 	str	r8, [sp, #20]
    d39c:	e1a06003 	mov	r6, r3
    d3a0:	e1a08005 	mov	r8, r5
    d3a4:	e1a05004 	mov	r5, r4
    d3a8:	e59d4008 	ldr	r4, [sp, #8]
    d3ac:	e5973000 	ldr	r3, [r7]
    d3b0:	e2866001 	add	r6, r6, #1
    d3b4:	e5980000 	ldr	r0, [r8]
    d3b8:	e283c001 	add	ip, r3, #1
    d3bc:	e1530000 	cmp	r3, r0
    d3c0:	e6ef0073 	uxtb	r0, r3
    d3c4:	aa00000b 	bge	d3f8 <_doprnt.constprop.1+0x500>
    d3c8:	e2733000 	rsbs	r3, r3, #0
    d3cc:	e587c000 	str	ip, [r7]
    d3d0:	e6ef3073 	uxtb	r3, r3
    d3d4:	52630000 	rsbpl	r0, r3, #0
    d3d8:	e21cc0ff 	ands	ip, ip, #255	; 0xff
    d3dc:	e0870000 	add	r0, r7, r0
    d3e0:	e5c04004 	strb	r4, [r0, #4]
    d3e4:	1a000003 	bne	d3f8 <_doprnt.constprop.1+0x500>
    d3e8:	e5c7c104 	strb	ip, [r7, #260]	; 0x104
    d3ec:	e59f04e8 	ldr	r0, [pc, #1256]	; d8dc <_doprnt.constprop.1+0x9e4>
    d3f0:	e59d3010 	ldr	r3, [sp, #16]
    d3f4:	e12fff33 	blx	r3
    d3f8:	e1560005 	cmp	r6, r5
    d3fc:	1affffea 	bne	d3ac <_doprnt.constprop.1+0x4b4>
    d400:	e59d3004 	ldr	r3, [sp, #4]
    d404:	e1a04005 	mov	r4, r5
    d408:	e1a05008 	mov	r5, r8
    d40c:	e59d8014 	ldr	r8, [sp, #20]
    d410:	e0833004 	add	r3, r3, r4
    d414:	e58d3004 	str	r3, [sp, #4]
    d418:	e3590000 	cmp	r9, #0
    d41c:	1a0000f8 	bne	d804 <_doprnt.constprop.1+0x90c>
    d420:	e3580000 	cmp	r8, #0
    d424:	da00001d 	ble	d4a0 <_doprnt.constprop.1+0x5a8>
    d428:	e1a03005 	mov	r3, r5
    d42c:	e3a06000 	mov	r6, #0
    d430:	e1a05008 	mov	r5, r8
    d434:	e3a09030 	mov	r9, #48	; 0x30
    d438:	e1a08003 	mov	r8, r3
    d43c:	e5973000 	ldr	r3, [r7]
    d440:	e2866001 	add	r6, r6, #1
    d444:	e5981000 	ldr	r1, [r8]
    d448:	e2830001 	add	r0, r3, #1
    d44c:	e1530001 	cmp	r3, r1
    d450:	e6ef1073 	uxtb	r1, r3
    d454:	aa00000b 	bge	d488 <_doprnt.constprop.1+0x590>
    d458:	e2733000 	rsbs	r3, r3, #0
    d45c:	e5870000 	str	r0, [r7]
    d460:	e6ef3073 	uxtb	r3, r3
    d464:	52631000 	rsbpl	r1, r3, #0
    d468:	e21000ff 	ands	r0, r0, #255	; 0xff
    d46c:	e0871001 	add	r1, r7, r1
    d470:	e5c19004 	strb	r9, [r1, #4]
    d474:	1a000003 	bne	d488 <_doprnt.constprop.1+0x590>
    d478:	e5c70104 	strb	r0, [r7, #260]	; 0x104
    d47c:	e59d3010 	ldr	r3, [sp, #16]
    d480:	e59f0454 	ldr	r0, [pc, #1108]	; d8dc <_doprnt.constprop.1+0x9e4>
    d484:	e12fff33 	blx	r3
    d488:	e1560005 	cmp	r6, r5
    d48c:	1affffea 	bne	d43c <_doprnt.constprop.1+0x544>
    d490:	e59d3004 	ldr	r3, [sp, #4]
    d494:	e1a05008 	mov	r5, r8
    d498:	e0833006 	add	r3, r3, r6
    d49c:	e58d3004 	str	r3, [sp, #4]
    d4a0:	e35b0000 	cmp	fp, #0
    d4a4:	da00001a 	ble	d514 <_doprnt.constprop.1+0x61c>
    d4a8:	e59d601c 	ldr	r6, [sp, #28]
    d4ac:	e59d9010 	ldr	r9, [sp, #16]
    d4b0:	e086800b 	add	r8, r6, fp
    d4b4:	e5973000 	ldr	r3, [r7]
    d4b8:	e5952000 	ldr	r2, [r5]
    d4bc:	e2831001 	add	r1, r3, #1
    d4c0:	e1530002 	cmp	r3, r2
    d4c4:	e6ef2073 	uxtb	r2, r3
    d4c8:	aa00000b 	bge	d4fc <_doprnt.constprop.1+0x604>
    d4cc:	e2733000 	rsbs	r3, r3, #0
    d4d0:	e5871000 	str	r1, [r7]
    d4d4:	e6ef3073 	uxtb	r3, r3
    d4d8:	52632000 	rsbpl	r2, r3, #0
    d4dc:	e21110ff 	ands	r1, r1, #255	; 0xff
    d4e0:	e5d60000 	ldrb	r0, [r6]
    d4e4:	e0872002 	add	r2, r7, r2
    d4e8:	e5c20004 	strb	r0, [r2, #4]
    d4ec:	1a000002 	bne	d4fc <_doprnt.constprop.1+0x604>
    d4f0:	e5c71104 	strb	r1, [r7, #260]	; 0x104
    d4f4:	e59f03e0 	ldr	r0, [pc, #992]	; d8dc <_doprnt.constprop.1+0x9e4>
    d4f8:	e12fff39 	blx	r9
    d4fc:	e2866001 	add	r6, r6, #1
    d500:	e1580006 	cmp	r8, r6
    d504:	1affffea 	bne	d4b4 <_doprnt.constprop.1+0x5bc>
    d508:	e59d3004 	ldr	r3, [sp, #4]
    d50c:	e083300b 	add	r3, r3, fp
    d510:	e58d3004 	str	r3, [sp, #4]
    d514:	e59d300c 	ldr	r3, [sp, #12]
    d518:	e3530000 	cmp	r3, #0
    d51c:	0a000082 	beq	d72c <_doprnt.constprop.1+0x834>
    d520:	e3540000 	cmp	r4, #0
    d524:	da000080 	ble	d72c <_doprnt.constprop.1+0x834>
    d528:	e59d9008 	ldr	r9, [sp, #8]
    d52c:	e3a06000 	mov	r6, #0
    d530:	e59d8010 	ldr	r8, [sp, #16]
    d534:	e5973000 	ldr	r3, [r7]
    d538:	e2866001 	add	r6, r6, #1
    d53c:	e5952000 	ldr	r2, [r5]
    d540:	e2831001 	add	r1, r3, #1
    d544:	e1530002 	cmp	r3, r2
    d548:	e6ef2073 	uxtb	r2, r3
    d54c:	aa00000a 	bge	d57c <_doprnt.constprop.1+0x684>
    d550:	e2733000 	rsbs	r3, r3, #0
    d554:	e5871000 	str	r1, [r7]
    d558:	e6ef3073 	uxtb	r3, r3
    d55c:	52632000 	rsbpl	r2, r3, #0
    d560:	e21110ff 	ands	r1, r1, #255	; 0xff
    d564:	e0872002 	add	r2, r7, r2
    d568:	e5c29004 	strb	r9, [r2, #4]
    d56c:	1a000002 	bne	d57c <_doprnt.constprop.1+0x684>
    d570:	e5c71104 	strb	r1, [r7, #260]	; 0x104
    d574:	e59f0360 	ldr	r0, [pc, #864]	; d8dc <_doprnt.constprop.1+0x9e4>
    d578:	e12fff38 	blx	r8
    d57c:	e1540006 	cmp	r4, r6
    d580:	1affffeb 	bne	d534 <_doprnt.constprop.1+0x63c>
    d584:	e59d3004 	ldr	r3, [sp, #4]
    d588:	e59d9024 	ldr	r9, [sp, #36]	; 0x24
    d58c:	e0833004 	add	r3, r3, r4
    d590:	e58d3004 	str	r3, [sp, #4]
    d594:	eafffe62 	b	cf24 <_doprnt.constprop.1+0x2c>
    d598:	e3a03001 	mov	r3, #1
    d59c:	e3520001 	cmp	r2, #1
    d5a0:	e3a01004 	mov	r1, #4
    d5a4:	e3a00000 	mov	r0, #0
    d5a8:	e3a0c010 	mov	ip, #16
    d5ac:	03a02003 	moveq	r2, #3
    d5b0:	eafffefd 	b	d1ac <_doprnt.constprop.1+0x2b4>
    d5b4:	e5993000 	ldr	r3, [r9]
    d5b8:	e3a02000 	mov	r2, #0
    d5bc:	e5cd2029 	strb	r2, [sp, #41]	; 0x29
    d5c0:	e2892004 	add	r2, r9, #4
    d5c4:	e5cd3028 	strb	r3, [sp, #40]	; 0x28
    d5c8:	e28d3028 	add	r3, sp, #40	; 0x28
    d5cc:	e58d2024 	str	r2, [sp, #36]	; 0x24
    d5d0:	e1a00003 	mov	r0, r3
    d5d4:	e58d301c 	str	r3, [sp, #28]
    d5d8:	e28aa001 	add	sl, sl, #1
    d5dc:	fa000359 	blx	e348 <strlen>
    d5e0:	e3560000 	cmp	r6, #0
    d5e4:	e1a0b000 	mov	fp, r0
    d5e8:	ba000098 	blt	d850 <_doprnt.constprop.1+0x958>
    d5ec:	e15b0006 	cmp	fp, r6
    d5f0:	e3a08000 	mov	r8, #0
    d5f4:	e58d8020 	str	r8, [sp, #32]
    d5f8:	a1a0b006 	movge	fp, r6
    d5fc:	e58d8014 	str	r8, [sp, #20]
    d600:	e1a09008 	mov	r9, r8
    d604:	e08b8008 	add	r8, fp, r8
    d608:	e1580004 	cmp	r8, r4
    d60c:	ba00004f 	blt	d750 <_doprnt.constprop.1+0x858>
    d610:	e59d3018 	ldr	r3, [sp, #24]
    d614:	e3a06000 	mov	r6, #0
    d618:	e59d2008 	ldr	r2, [sp, #8]
    d61c:	e1a08006 	mov	r8, r6
    d620:	e3520030 	cmp	r2, #48	; 0x30
    d624:	13a03000 	movne	r3, #0
    d628:	02033001 	andeq	r3, r3, #1
    d62c:	e3530000 	cmp	r3, #0
    d630:	01a04008 	moveq	r4, r8
    d634:	13a04000 	movne	r4, #0
    d638:	01a08006 	moveq	r8, r6
    d63c:	eaffff21 	b	d2c8 <_doprnt.constprop.1+0x3d0>
    d640:	e3520001 	cmp	r2, #1
    d644:	0a000090 	beq	d88c <_doprnt.constprop.1+0x994>
    d648:	e3a00000 	mov	r0, #0
    d64c:	e3a01003 	mov	r1, #3
    d650:	e1a03000 	mov	r3, r0
    d654:	e3a0c008 	mov	ip, #8
    d658:	eafffed3 	b	d1ac <_doprnt.constprop.1+0x2b4>
    d65c:	e35e0004 	cmp	lr, #4
    d660:	02899007 	addeq	r9, r9, #7
    d664:	12893004 	addne	r3, r9, #4
    d668:	03c99007 	biceq	r9, r9, #7
    d66c:	1599e000 	ldrne	lr, [r9]
    d670:	02893008 	addeq	r3, r9, #8
    d674:	0599e000 	ldreq	lr, [r9]
    d678:	e58d3024 	str	r3, [sp, #36]	; 0x24
    d67c:	e35e0000 	cmp	lr, #0
    d680:	a3a08000 	movge	r8, #0
    d684:	a58d8020 	strge	r8, [sp, #32]
    d688:	a1a09008 	movge	r9, r8
    d68c:	ba000084 	blt	d8a4 <_doprnt.constprop.1+0x9ac>
    d690:	e3a01000 	mov	r1, #0
    d694:	e28aa001 	add	sl, sl, #1
    d698:	e58d1014 	str	r1, [sp, #20]
    d69c:	e3a0c00a 	mov	ip, #10
    d6a0:	eafffed8 	b	d208 <_doprnt.constprop.1+0x310>
    d6a4:	e599e000 	ldr	lr, [r9]
    d6a8:	e3a01004 	mov	r1, #4
    d6ac:	e0893001 	add	r3, r9, r1
    d6b0:	e28aa001 	add	sl, sl, #1
    d6b4:	e58d3024 	str	r3, [sp, #36]	; 0x24
    d6b8:	e1a04001 	mov	r4, r1
    d6bc:	e3a0c010 	mov	ip, #16
    d6c0:	e3a03000 	mov	r3, #0
    d6c4:	e3a02030 	mov	r2, #48	; 0x30
    d6c8:	e58d2008 	str	r2, [sp, #8]
    d6cc:	e3a09000 	mov	r9, #0
    d6d0:	e3a02002 	mov	r2, #2
    d6d4:	e58d2014 	str	r2, [sp, #20]
    d6d8:	e1a08009 	mov	r8, r9
    d6dc:	e58d9020 	str	r9, [sp, #32]
    d6e0:	eafffec4 	b	d1f8 <_doprnt.constprop.1+0x300>
    d6e4:	e5993000 	ldr	r3, [r9]
    d6e8:	e2892004 	add	r2, r9, #4
    d6ec:	e58d2024 	str	r2, [sp, #36]	; 0x24
    d6f0:	e1a01003 	mov	r1, r3
    d6f4:	e30f34d4 	movw	r3, #62676	; 0xf4d4
    d6f8:	e3403000 	movt	r3, #0
    d6fc:	e2512000 	subs	r2, r1, #0
    d700:	01a02003 	moveq	r2, r3
    d704:	e58d201c 	str	r2, [sp, #28]
    d708:	e1a00002 	mov	r0, r2
    d70c:	eaffffb1 	b	d5d8 <_doprnt.constprop.1+0x6e0>
    d710:	e3a01000 	mov	r1, #0
    d714:	e3a0c00a 	mov	ip, #10
    d718:	e1a00001 	mov	r0, r1
    d71c:	e1a03001 	mov	r3, r1
    d720:	eafffea1 	b	d1ac <_doprnt.constprop.1+0x2b4>
    d724:	e3a03000 	mov	r3, #0
    d728:	eaffff9b 	b	d59c <_doprnt.constprop.1+0x6a4>
    d72c:	e59d9024 	ldr	r9, [sp, #36]	; 0x24
    d730:	eafffdfb 	b	cf24 <_doprnt.constprop.1+0x2c>
    d734:	e59d3014 	ldr	r3, [sp, #20]
    d738:	e3530002 	cmp	r3, #2
    d73c:	0affff0d 	beq	d378 <_doprnt.constprop.1+0x480>
    d740:	e59d3004 	ldr	r3, [sp, #4]
    d744:	e2833001 	add	r3, r3, #1
    d748:	e58d3004 	str	r3, [sp, #4]
    d74c:	eaffff0c 	b	d384 <_doprnt.constprop.1+0x48c>
    d750:	e59d3018 	ldr	r3, [sp, #24]
    d754:	e3a06000 	mov	r6, #0
    d758:	e59d2008 	ldr	r2, [sp, #8]
    d75c:	e3520030 	cmp	r2, #48	; 0x30
    d760:	13a03000 	movne	r3, #0
    d764:	02033001 	andeq	r3, r3, #1
    d768:	e0448008 	sub	r8, r4, r8
    d76c:	eaffffae 	b	d62c <_doprnt.constprop.1+0x734>
    d770:	e1b0213e 	lsrs	r2, lr, r1
    d774:	e3a03001 	mov	r3, #1
    d778:	e1a0b113 	lsl	fp, r3, r1
    d77c:	e24bb001 	sub	fp, fp, #1
    d780:	e00ee00b 	and	lr, lr, fp
    d784:	e7d0c00e 	ldrb	ip, [r0, lr]
    d788:	e5cdc04d 	strb	ip, [sp, #77]	; 0x4d
    d78c:	0afffeb1 	beq	d258 <_doprnt.constprop.1+0x360>
    d790:	e28dc04d 	add	ip, sp, #77	; 0x4d
    d794:	e00be002 	and	lr, fp, r2
    d798:	e2833001 	add	r3, r3, #1
    d79c:	e1b02132 	lsrs	r2, r2, r1
    d7a0:	e7d0e00e 	ldrb	lr, [r0, lr]
    d7a4:	e5ece001 	strb	lr, [ip, #1]!
    d7a8:	1afffff9 	bne	d794 <_doprnt.constprop.1+0x89c>
    d7ac:	eafffea9 	b	d258 <_doprnt.constprop.1+0x360>
    d7b0:	e28d3028 	add	r3, sp, #40	; 0x28
    d7b4:	e3a02020 	mov	r2, #32
    d7b8:	e58d301c 	str	r3, [sp, #28]
    d7bc:	e3a03000 	mov	r3, #0
    d7c0:	e58d2008 	str	r2, [sp, #8]
    d7c4:	eaffffe7 	b	d768 <_doprnt.constprop.1+0x870>
    d7c8:	e5994000 	ldr	r4, [r9]
    d7cc:	e2899004 	add	r9, r9, #4
    d7d0:	e5da3001 	ldrb	r3, [sl, #1]
    d7d4:	e3540000 	cmp	r4, #0
    d7d8:	a1a0a00c 	movge	sl, ip
    d7dc:	aafffdf5 	bge	cfb8 <_doprnt.constprop.1+0xc0>
    d7e0:	e2644000 	rsb	r4, r4, #0
    d7e4:	e1a0a00c 	mov	sl, ip
    d7e8:	e3a0c000 	mov	ip, #0
    d7ec:	e58dc018 	str	ip, [sp, #24]
    d7f0:	e3a0c001 	mov	ip, #1
    d7f4:	e58dc00c 	str	ip, [sp, #12]
    d7f8:	e3a0c020 	mov	ip, #32
    d7fc:	e58dc008 	str	ip, [sp, #8]
    d800:	eafffdf4 	b	cfd8 <_doprnt.constprop.1+0xe0>
    d804:	e5973000 	ldr	r3, [r7]
    d808:	e5952000 	ldr	r2, [r5]
    d80c:	e1530002 	cmp	r3, r2
    d810:	aa00000a 	bge	d840 <_doprnt.constprop.1+0x948>
    d814:	e2731000 	rsbs	r1, r3, #0
    d818:	e6ef2073 	uxtb	r2, r3
    d81c:	e6ef1071 	uxtb	r1, r1
    d820:	e2833001 	add	r3, r3, #1
    d824:	52612000 	rsbpl	r2, r1, #0
    d828:	e5873000 	str	r3, [r7]
    d82c:	e21330ff 	ands	r3, r3, #255	; 0xff
    d830:	e0872002 	add	r2, r7, r2
    d834:	e5dd1020 	ldrb	r1, [sp, #32]
    d838:	e5c21004 	strb	r1, [r2, #4]
    d83c:	0a000008 	beq	d864 <_doprnt.constprop.1+0x96c>
    d840:	e59d3004 	ldr	r3, [sp, #4]
    d844:	e2833001 	add	r3, r3, #1
    d848:	e58d3004 	str	r3, [sp, #4]
    d84c:	eafffef3 	b	d420 <_doprnt.constprop.1+0x528>
    d850:	e3a08000 	mov	r8, #0
    d854:	e58d8020 	str	r8, [sp, #32]
    d858:	e1a09008 	mov	r9, r8
    d85c:	e58d8014 	str	r8, [sp, #20]
    d860:	eaffff67 	b	d604 <_doprnt.constprop.1+0x70c>
    d864:	e5c73104 	strb	r3, [r7, #260]	; 0x104
    d868:	e59f006c 	ldr	r0, [pc, #108]	; d8dc <_doprnt.constprop.1+0x9e4>
    d86c:	e59d3010 	ldr	r3, [sp, #16]
    d870:	e12fff33 	blx	r3
    d874:	eafffff1 	b	d840 <_doprnt.constprop.1+0x948>
    d878:	e5996000 	ldr	r6, [r9]
    d87c:	e28aa002 	add	sl, sl, #2
    d880:	e5da3000 	ldrb	r3, [sl]
    d884:	e2899004 	add	r9, r9, #4
    d888:	eafffdd5 	b	cfe4 <_doprnt.constprop.1+0xec>
    d88c:	e1a00002 	mov	r0, r2
    d890:	e3a01003 	mov	r1, #3
    d894:	e3a0c008 	mov	ip, #8
    d898:	e3a03000 	mov	r3, #0
    d89c:	e3a02002 	mov	r2, #2
    d8a0:	eafffe41 	b	d1ac <_doprnt.constprop.1+0x2b4>
    d8a4:	e26ee000 	rsb	lr, lr, #0
    d8a8:	e3a08001 	mov	r8, #1
    d8ac:	e3a0302d 	mov	r3, #45	; 0x2d
    d8b0:	e1a09008 	mov	r9, r8
    d8b4:	e58d3020 	str	r3, [sp, #32]
    d8b8:	eaffff74 	b	d690 <_doprnt.constprop.1+0x798>
    d8bc:	e3520003 	cmp	r2, #3
    d8c0:	0affff81 	beq	d6cc <_doprnt.constprop.1+0x7d4>
    d8c4:	e58d9020 	str	r9, [sp, #32]
    d8c8:	e1a08009 	mov	r8, r9
    d8cc:	e58d9014 	str	r9, [sp, #20]
    d8d0:	eafffe48 	b	d1f8 <_doprnt.constprop.1+0x300>
    d8d4:	e3a03001 	mov	r3, #1
    d8d8:	eafffe5e 	b	d258 <_doprnt.constprop.1+0x360>
    d8dc:	0002137c 	.word	0x0002137c
    d8e0:	0000f4c4 	.word	0x0000f4c4

0000d8e4 <Init_EmbStdio>:
    d8e4:	e3013378 	movw	r3, #4984	; 0x1378
    d8e8:	e3403002 	movt	r3, #2
    d8ec:	e5830108 	str	r0, [r3, #264]	; 0x108
    d8f0:	e12fff1e 	bx	lr

0000d8f4 <printf>:
    d8f4:	e92d000f 	push	{r0, r1, r2, r3}
    d8f8:	e92d4070 	push	{r4, r5, r6, lr}
    d8fc:	e3014378 	movw	r4, #4984	; 0x1378
    d900:	e3404002 	movt	r4, #2
    d904:	e24dd008 	sub	sp, sp, #8
    d908:	e5942108 	ldr	r2, [r4, #264]	; 0x108
    d90c:	e3520000 	cmp	r2, #0
    d910:	0a00001b 	beq	d984 <printf+0x90>
    d914:	e30f35b0 	movw	r3, #62896	; 0xf5b0
    d918:	e3e00102 	mvn	r0, #-2147483648	; 0x80000000
    d91c:	e3403000 	movt	r3, #0
    d920:	e3a05000 	mov	r5, #0
    d924:	e5845000 	str	r5, [r4]
    d928:	e28d101c 	add	r1, sp, #28
    d92c:	e5830000 	str	r0, [r3]
    d930:	e59d0018 	ldr	r0, [sp, #24]
    d934:	e58d1004 	str	r1, [sp, #4]
    d938:	ebfffd6e 	bl	cef8 <_doprnt.constprop.1>
    d93c:	e5943000 	ldr	r3, [r4]
    d940:	e1a06000 	mov	r6, r0
    d944:	e0552003 	subs	r2, r5, r3
    d948:	e6ef3073 	uxtb	r3, r3
    d94c:	e6ef2072 	uxtb	r2, r2
    d950:	52623000 	rsbpl	r3, r2, #0
    d954:	e1530005 	cmp	r3, r5
    d958:	da000004 	ble	d970 <printf+0x7c>
    d95c:	e0843003 	add	r3, r4, r3
    d960:	e2840004 	add	r0, r4, #4
    d964:	e5942108 	ldr	r2, [r4, #264]	; 0x108
    d968:	e5c35004 	strb	r5, [r3, #4]
    d96c:	e12fff32 	blx	r2
    d970:	e1a00006 	mov	r0, r6
    d974:	e28dd008 	add	sp, sp, #8
    d978:	e8bd4070 	pop	{r4, r5, r6, lr}
    d97c:	e28dd010 	add	sp, sp, #16
    d980:	e12fff1e 	bx	lr
    d984:	e3e06000 	mvn	r6, #0
    d988:	eafffff8 	b	d970 <printf+0x7c>

0000d98c <sprintf>:
    d98c:	e92d000e 	push	{r1, r2, r3}
    d990:	e3012378 	movw	r2, #4984	; 0x1378
    d994:	e92d4030 	push	{r4, r5, lr}
    d998:	e30f35b0 	movw	r3, #62896	; 0xf5b0
    d99c:	e3402002 	movt	r2, #2
    d9a0:	e24dd008 	sub	sp, sp, #8
    d9a4:	e3403000 	movt	r3, #0
    d9a8:	e28dc018 	add	ip, sp, #24
    d9ac:	e58dc000 	str	ip, [sp]
    d9b0:	e3a05000 	mov	r5, #0
    d9b4:	e5825000 	str	r5, [r2]
    d9b8:	e1a04000 	mov	r4, r0
    d9bc:	e59d0014 	ldr	r0, [sp, #20]
    d9c0:	e3e0e102 	mvn	lr, #-2147483648	; 0x80000000
    d9c4:	e583e000 	str	lr, [r3]
    d9c8:	e1a0100c 	mov	r1, ip
    d9cc:	e58d4004 	str	r4, [sp, #4]
    d9d0:	e28d2004 	add	r2, sp, #4
    d9d4:	ebfffb1e 	bl	c654 <_doprnt.constprop.2>
    d9d8:	e59d3004 	ldr	r3, [sp, #4]
    d9dc:	e5c35000 	strb	r5, [r3]
    d9e0:	e59d0004 	ldr	r0, [sp, #4]
    d9e4:	e0400004 	sub	r0, r0, r4
    d9e8:	e28dd008 	add	sp, sp, #8
    d9ec:	e8bd4030 	pop	{r4, r5, lr}
    d9f0:	e28dd00c 	add	sp, sp, #12
    d9f4:	e12fff1e 	bx	lr

0000d9f8 <task3>:
    d9f8:	e92d4010 	push	{r4, lr}
    d9fc:	e30f64dc 	movw	r6, #62684	; 0xf4dc
    da00:	e3406000 	movt	r6, #0
    da04:	e3014484 	movw	r4, #5252	; 0x1484
    da08:	e3404002 	movt	r4, #2
    da0c:	e30f54e4 	movw	r5, #62692	; 0xf4e4
    da10:	e3405000 	movt	r5, #0
    da14:	ea000005 	b	da30 <task3+0x38>
    da18:	e5d40004 	ldrb	r0, [r4, #4]
    da1c:	e2200001 	eor	r0, r0, #1
    da20:	e5c40004 	strb	r0, [r4, #4]
    da24:	ebfff065 	bl	9bc0 <set_Activity_LED>
    da28:	e3a00ffa 	mov	r0, #1000	; 0x3e8
    da2c:	ebfff790 	bl	b874 <vTaskDelay>
    da30:	e5940000 	ldr	r0, [r4]
    da34:	e3a01028 	mov	r1, #40	; 0x28
    da38:	ebfff46e 	bl	abf8 <xQueueSemaphoreTake>
    da3c:	e3500001 	cmp	r0, #1
    da40:	1afffff4 	bne	da18 <task3+0x20>
    da44:	e3a0100e 	mov	r1, #14
    da48:	e3a00000 	mov	r0, #0
    da4c:	ebfff2d2 	bl	a59c <GotoXY>
    da50:	ebfff5dc 	bl	b1c8 <xLoadPercentCPU>
    da54:	e1a01000 	mov	r1, r0
    da58:	e1a02006 	mov	r2, r6
    da5c:	e1a00005 	mov	r0, r5
    da60:	ebffffa3 	bl	d8f4 <printf>
    da64:	e5940000 	ldr	r0, [r4]
    da68:	e3a03000 	mov	r3, #0
    da6c:	e1a02003 	mov	r2, r3
    da70:	e1a01003 	mov	r1, r3
    da74:	ebfff32e 	bl	a734 <xQueueGenericSend>
    da78:	eaffffe6 	b	da18 <task3+0x20>

0000da7c <task4>:
    da7c:	e3014484 	movw	r4, #5252	; 0x1484
    da80:	e30f6508 	movw	r6, #62728	; 0xf508
    da84:	e3404002 	movt	r4, #2
    da88:	e30f5538 	movw	r5, #62776	; 0xf538
    da8c:	e52de004 	push	{lr}		; (str lr, [sp, #-4]!)
    da90:	e24ddf41 	sub	sp, sp, #260	; 0x104
    da94:	e3406000 	movt	r6, #0
    da98:	e3405000 	movt	r5, #0
    da9c:	ea000001 	b	daa8 <task4+0x2c>
    daa0:	e3020710 	movw	r0, #10000	; 0x2710
    daa4:	ebfff772 	bl	b874 <vTaskDelay>
    daa8:	e5940000 	ldr	r0, [r4]
    daac:	e3a01028 	mov	r1, #40	; 0x28
    dab0:	ebfff450 	bl	abf8 <xQueueSemaphoreTake>
    dab4:	e3500001 	cmp	r0, #1
    dab8:	1afffff8 	bne	daa0 <task4+0x24>
    dabc:	e3a0100f 	mov	r1, #15
    dac0:	e3a00000 	mov	r0, #0
    dac4:	ebfff2b4 	bl	a59c <GotoXY>
    dac8:	e1a00006 	mov	r0, r6
    dacc:	ebffff88 	bl	d8f4 <printf>
    dad0:	e1a0000d 	mov	r0, sp
    dad4:	ebfffa1a 	bl	c344 <vTaskList>
    dad8:	e1a0000d 	mov	r0, sp
    dadc:	ebffff84 	bl	d8f4 <printf>
    dae0:	e1a00005 	mov	r0, r5
    dae4:	ebffff82 	bl	d8f4 <printf>
    dae8:	e5940000 	ldr	r0, [r4]
    daec:	e3a03000 	mov	r3, #0
    daf0:	e1a02003 	mov	r2, r3
    daf4:	e1a01003 	mov	r1, r3
    daf8:	ebfff30d 	bl	a734 <xQueueGenericSend>
    dafc:	eaffffe7 	b	daa0 <task4+0x24>

0000db00 <task1>:
    db00:	e92d4ff0 	push	{r4, r5, r6, r7, r8, r9, sl, fp, lr}
    db04:	e30f353c 	movw	r3, #62780	; 0xf53c
    db08:	e3403000 	movt	r3, #0
    db0c:	e24dd014 	sub	sp, sp, #20
    db10:	e3a04001 	mov	r4, #1
    db14:	e3017484 	movw	r7, #5252	; 0x1484
    db18:	e3407002 	movt	r7, #2
    db1c:	e304add3 	movw	sl, #19923	; 0x4dd3
    db20:	e58d300c 	str	r3, [sp, #12]
    db24:	e1a05004 	mov	r5, r4
    db28:	e341a062 	movt	sl, #4194	; 0x1062
    db2c:	ea000005 	b	db48 <task1+0x48>
    db30:	e0844005 	add	r4, r4, r5
    db34:	e3a0000a 	mov	r0, #10
    db38:	ebfff74d 	bl	b874 <vTaskDelay>
    db3c:	e3540000 	cmp	r4, #0
    db40:	13540ffa 	cmpne	r4, #1000	; 0x3e8
    db44:	02655000 	rsbeq	r5, r5, #0
    db48:	e5970000 	ldr	r0, [r7]
    db4c:	e3a01028 	mov	r1, #40	; 0x28
    db50:	ebfff428 	bl	abf8 <xQueueSemaphoreTake>
    db54:	e3500001 	cmp	r0, #1
    db58:	1afffff4 	bne	db30 <task1+0x30>
    db5c:	e59d800c 	ldr	r8, [sp, #12]
    db60:	e1a00008 	mov	r0, r8
    db64:	fa0001f7 	blx	e348 <strlen>
    db68:	e1a06000 	mov	r6, r0
    db6c:	e3a0100a 	mov	r1, #10
    db70:	e3a00000 	mov	r0, #0
    db74:	ebfff288 	bl	a59c <GotoXY>
    db78:	e30f0544 	movw	r0, #62788	; 0xf544
    db7c:	e1a01008 	mov	r1, r8
    db80:	e3400000 	movt	r0, #0
    db84:	ebffff5a 	bl	d8f4 <printf>
    db88:	e3a01000 	mov	r1, #0
    db8c:	e1a00001 	mov	r0, r1
    db90:	e34f1fff 	movt	r1, #65535	; 0xffff
    db94:	ebfff0d1 	bl	9ee0 <SetDCBrushColor>
    db98:	e3a030ac 	mov	r3, #172	; 0xac
    db9c:	e2662048 	rsb	r2, r6, #72	; 0x48
    dba0:	e58d3000 	str	r3, [sp]
    dba4:	e2866001 	add	r6, r6, #1
    dba8:	e1a03184 	lsl	r3, r4, #3
    dbac:	e1a0b000 	mov	fp, r0
    dbb0:	e0030293 	mul	r3, r3, r2
    dbb4:	e1a0c186 	lsl	ip, r6, #3
    dbb8:	e3a020a2 	mov	r2, #162	; 0xa2
    dbbc:	e0c98a93 	smull	r8, r9, r3, sl
    dbc0:	e1a06fc3 	asr	r6, r3, #31
    dbc4:	e1a0100c 	mov	r1, ip
    dbc8:	e0666349 	rsb	r6, r6, r9, asr #6
    dbcc:	e3a00000 	mov	r0, #0
    dbd0:	e086600c 	add	r6, r6, ip
    dbd4:	e1a03006 	mov	r3, r6
    dbd8:	ebfff116 	bl	a038 <Rectangle>
    dbdc:	e3a01000 	mov	r1, #0
    dbe0:	e1a00001 	mov	r0, r1
    dbe4:	ebfff0bd 	bl	9ee0 <SetDCBrushColor>
    dbe8:	e3a030ac 	mov	r3, #172	; 0xac
    dbec:	e3a020a2 	mov	r2, #162	; 0xa2
    dbf0:	e58d3000 	str	r3, [sp]
    dbf4:	e1a01006 	mov	r1, r6
    dbf8:	e3a03f92 	mov	r3, #584	; 0x248
    dbfc:	e3a00000 	mov	r0, #0
    dc00:	ebfff10c 	bl	a038 <Rectangle>
    dc04:	e1a0100b 	mov	r1, fp
    dc08:	e3a00000 	mov	r0, #0
    dc0c:	ebfff0b3 	bl	9ee0 <SetDCBrushColor>
    dc10:	e3a0100a 	mov	r1, #10
    dc14:	e3a00049 	mov	r0, #73	; 0x49
    dc18:	ebfff25f 	bl	a59c <GotoXY>
    dc1c:	e3a01064 	mov	r1, #100	; 0x64
    dc20:	e30f0548 	movw	r0, #62792	; 0xf548
    dc24:	e0010491 	mul	r1, r1, r4
    dc28:	e3400000 	movt	r0, #0
    dc2c:	e0c32a91 	smull	r2, r3, r1, sl
    dc30:	e1a01fc1 	asr	r1, r1, #31
    dc34:	e0611343 	rsb	r1, r1, r3, asr #6
    dc38:	ebffff2d 	bl	d8f4 <printf>
    dc3c:	e5970000 	ldr	r0, [r7]
    dc40:	e3a03000 	mov	r3, #0
    dc44:	e1a02003 	mov	r2, r3
    dc48:	e1a01003 	mov	r1, r3
    dc4c:	ebfff2b8 	bl	a734 <xQueueGenericSend>
    dc50:	eaffffb6 	b	db30 <task1+0x30>

0000dc54 <task2>:
    dc54:	e92d4ff0 	push	{r4, r5, r6, r7, r8, r9, sl, fp, lr}
    dc58:	e30f3544 	movw	r3, #62788	; 0xf544
    dc5c:	e3403000 	movt	r3, #0
    dc60:	e24dd014 	sub	sp, sp, #20
    dc64:	e30f9554 	movw	r9, #62804	; 0xf554
    dc68:	e3a04001 	mov	r4, #1
    dc6c:	e3409000 	movt	r9, #0
    dc70:	e3017484 	movw	r7, #5252	; 0x1484
    dc74:	e3407002 	movt	r7, #2
    dc78:	e304add3 	movw	sl, #19923	; 0x4dd3
    dc7c:	e58d3008 	str	r3, [sp, #8]
    dc80:	e1a06004 	mov	r6, r4
    dc84:	e341a062 	movt	sl, #4194	; 0x1062
    dc88:	e58d900c 	str	r9, [sp, #12]
    dc8c:	ea000005 	b	dca8 <task2+0x54>
    dc90:	e0844006 	add	r4, r4, r6
    dc94:	e3a00023 	mov	r0, #35	; 0x23
    dc98:	ebfff6f5 	bl	b874 <vTaskDelay>
    dc9c:	e3540000 	cmp	r4, #0
    dca0:	13540ffa 	cmpne	r4, #1000	; 0x3e8
    dca4:	02666000 	rsbeq	r6, r6, #0
    dca8:	e5970000 	ldr	r0, [r7]
    dcac:	e3a01028 	mov	r1, #40	; 0x28
    dcb0:	ebfff3d0 	bl	abf8 <xQueueSemaphoreTake>
    dcb4:	e3500001 	cmp	r0, #1
    dcb8:	1afffff4 	bne	dc90 <task2+0x3c>
    dcbc:	e59d800c 	ldr	r8, [sp, #12]
    dcc0:	e1a00008 	mov	r0, r8
    dcc4:	fa00019f 	blx	e348 <strlen>
    dcc8:	e1a05000 	mov	r5, r0
    dccc:	e3a0100c 	mov	r1, #12
    dcd0:	e3a00000 	mov	r0, #0
    dcd4:	ebfff230 	bl	a59c <GotoXY>
    dcd8:	e59d0008 	ldr	r0, [sp, #8]
    dcdc:	e1a01008 	mov	r1, r8
    dce0:	ebffff03 	bl	d8f4 <printf>
    dce4:	e3a010ff 	mov	r1, #255	; 0xff
    dce8:	e3a00000 	mov	r0, #0
    dcec:	e34f1f00 	movt	r1, #65280	; 0xff00
    dcf0:	ebfff07a 	bl	9ee0 <SetDCBrushColor>
    dcf4:	e3a030cc 	mov	r3, #204	; 0xcc
    dcf8:	e2652048 	rsb	r2, r5, #72	; 0x48
    dcfc:	e58d3000 	str	r3, [sp]
    dd00:	e2855001 	add	r5, r5, #1
    dd04:	e1a03184 	lsl	r3, r4, #3
    dd08:	e1a0b000 	mov	fp, r0
    dd0c:	e0030293 	mul	r3, r3, r2
    dd10:	e1a0c185 	lsl	ip, r5, #3
    dd14:	e3a020c2 	mov	r2, #194	; 0xc2
    dd18:	e0c98a93 	smull	r8, r9, r3, sl
    dd1c:	e1a05fc3 	asr	r5, r3, #31
    dd20:	e1a0100c 	mov	r1, ip
    dd24:	e0655349 	rsb	r5, r5, r9, asr #6
    dd28:	e3a00000 	mov	r0, #0
    dd2c:	e085500c 	add	r5, r5, ip
    dd30:	e1a03005 	mov	r3, r5
    dd34:	ebfff0bf 	bl	a038 <Rectangle>
    dd38:	e3a01000 	mov	r1, #0
    dd3c:	e1a00001 	mov	r0, r1
    dd40:	ebfff066 	bl	9ee0 <SetDCBrushColor>
    dd44:	e3a030cc 	mov	r3, #204	; 0xcc
    dd48:	e3a020c2 	mov	r2, #194	; 0xc2
    dd4c:	e58d3000 	str	r3, [sp]
    dd50:	e1a01005 	mov	r1, r5
    dd54:	e3a03f92 	mov	r3, #584	; 0x248
    dd58:	e3a00000 	mov	r0, #0
    dd5c:	ebfff0b5 	bl	a038 <Rectangle>
    dd60:	e1a0100b 	mov	r1, fp
    dd64:	e3a00000 	mov	r0, #0
    dd68:	ebfff05c 	bl	9ee0 <SetDCBrushColor>
    dd6c:	e3a0100c 	mov	r1, #12
    dd70:	e3a00049 	mov	r0, #73	; 0x49
    dd74:	ebfff208 	bl	a59c <GotoXY>
    dd78:	e3a01064 	mov	r1, #100	; 0x64
    dd7c:	e30f0548 	movw	r0, #62792	; 0xf548
    dd80:	e0010491 	mul	r1, r1, r4
    dd84:	e3400000 	movt	r0, #0
    dd88:	e0c32a91 	smull	r2, r3, r1, sl
    dd8c:	e1a01fc1 	asr	r1, r1, #31
    dd90:	e0611343 	rsb	r1, r1, r3, asr #6
    dd94:	ebfffed6 	bl	d8f4 <printf>
    dd98:	e5970000 	ldr	r0, [r7]
    dd9c:	e3a03000 	mov	r3, #0
    dda0:	e1a02003 	mov	r2, r3
    dda4:	e1a01003 	mov	r1, r3
    dda8:	ebfff261 	bl	a734 <xQueueGenericSend>
    ddac:	eaffffb7 	b	dc90 <task2+0x3c>

0000ddb0 <main>:
    ddb0:	e30a05b0 	movw	r0, #42416	; 0xa5b0
    ddb4:	e3014484 	movw	r4, #5252	; 0x1484
    ddb8:	e52de004 	push	{lr}		; (str lr, [sp, #-4]!)
    ddbc:	e24dd00c 	sub	sp, sp, #12
    ddc0:	e3400000 	movt	r0, #0
    ddc4:	e3404002 	movt	r4, #2
    ddc8:	ebfffec5 	bl	d8e4 <Init_EmbStdio>
    ddcc:	e3a02000 	mov	r2, #0
    ddd0:	e30d38f4 	movw	r3, #55540	; 0xd8f4
    ddd4:	e3403000 	movt	r3, #0
    ddd8:	e1a01002 	mov	r1, r2
    dddc:	e1a00002 	mov	r0, r2
    dde0:	ebfff109 	bl	a20c <PiConsole_Init>
    dde4:	e30d08f4 	movw	r0, #55540	; 0xd8f4
    dde8:	e3400000 	movt	r0, #0
    ddec:	ebfff012 	bl	9e3c <displaySmartStart>
    ddf0:	e30d08f4 	movw	r0, #55540	; 0xd8f4
    ddf4:	e3400000 	movt	r0, #0
    ddf8:	ebffefdb 	bl	9d6c <ARM_setmaxspeed>
    ddfc:	e30f055c 	movw	r0, #62812	; 0xf55c
    de00:	e3a01ffa 	mov	r1, #1000	; 0x3e8
    de04:	e3400000 	movt	r0, #0
    de08:	ebfffeb9 	bl	d8f4 <printf>
    de0c:	e3a02003 	mov	r2, #3
    de10:	e3a01000 	mov	r1, #0
    de14:	e3a00001 	mov	r0, #1
    de18:	ebfff21e 	bl	a698 <xQueueGenericCreate>
    de1c:	e5840000 	str	r0, [r4]
    de20:	e3500000 	cmp	r0, #0
    de24:	0a00000a 	beq	de54 <main+0xa4>
    de28:	e3a03000 	mov	r3, #0
    de2c:	e1a02003 	mov	r2, r3
    de30:	e1a01003 	mov	r1, r3
    de34:	ebfff23e 	bl	a734 <xQueueGenericSend>
    de38:	e5940000 	ldr	r0, [r4]
    de3c:	e3500000 	cmp	r0, #0
    de40:	0a000003 	beq	de54 <main+0xa4>
    de44:	e3a03000 	mov	r3, #0
    de48:	e1a02003 	mov	r2, r3
    de4c:	e1a01003 	mov	r1, r3
    de50:	ebfff237 	bl	a734 <xQueueGenericSend>
    de54:	e3a04000 	mov	r4, #0
    de58:	e3a05004 	mov	r5, #4
    de5c:	e58d4004 	str	r4, [sp, #4]
    de60:	e30f153c 	movw	r1, #62780	; 0xf53c
    de64:	e3401000 	movt	r1, #0
    de68:	e30d0b00 	movw	r0, #56064	; 0xdb00
    de6c:	e58d5000 	str	r5, [sp]
    de70:	e1a03004 	mov	r3, r4
    de74:	e3400000 	movt	r0, #0
    de78:	e3a02b02 	mov	r2, #2048	; 0x800
    de7c:	ebfff4dd 	bl	b1f8 <xTaskCreate>
    de80:	e58d4004 	str	r4, [sp, #4]
    de84:	e30f1554 	movw	r1, #62804	; 0xf554
    de88:	e3401000 	movt	r1, #0
    de8c:	e30d0c54 	movw	r0, #56404	; 0xdc54
    de90:	e58d5000 	str	r5, [sp]
    de94:	e1a03004 	mov	r3, r4
    de98:	e3400000 	movt	r0, #0
    de9c:	e3a02b02 	mov	r2, #2048	; 0x800
    dea0:	ebfff4d4 	bl	b1f8 <xTaskCreate>
    dea4:	e58d4004 	str	r4, [sp, #4]
    dea8:	e3a03003 	mov	r3, #3
    deac:	e58d3000 	str	r3, [sp]
    deb0:	e30f1570 	movw	r1, #62832	; 0xf570
    deb4:	e3401000 	movt	r1, #0
    deb8:	e30d09f8 	movw	r0, #55800	; 0xd9f8
    debc:	e3400000 	movt	r0, #0
    dec0:	e1a03004 	mov	r3, r4
    dec4:	e3a02b02 	mov	r2, #2048	; 0x800
    dec8:	ebfff4ca 	bl	b1f8 <xTaskCreate>
    decc:	e58d4004 	str	r4, [sp, #4]
    ded0:	e3a03002 	mov	r3, #2
    ded4:	e58d3000 	str	r3, [sp]
    ded8:	e30f1578 	movw	r1, #62840	; 0xf578
    dedc:	e3401000 	movt	r1, #0
    dee0:	e30d0a7c 	movw	r0, #55932	; 0xda7c
    dee4:	e3400000 	movt	r0, #0
    dee8:	e1a03004 	mov	r3, r4
    deec:	e3a02b02 	mov	r2, #2048	; 0x800
    def0:	ebfff4c0 	bl	b1f8 <xTaskCreate>
    def4:	ebfff58c 	bl	b52c <vTaskStartScheduler>
    def8:	eafffffe 	b	def8 <main+0x148>

0000defc <pvPortMalloc>:
    defc:	e92d41f0 	push	{r4, r5, r6, r7, r8, lr}
    df00:	e1a07000 	mov	r7, r0
    df04:	ebfff5a7 	bl	b5a8 <vTaskSuspendAll>
    df08:	e301348c 	movw	r3, #5260	; 0x148c
    df0c:	e3403002 	movt	r3, #2
    df10:	e5935008 	ldr	r5, [r3, #8]
    df14:	e3550000 	cmp	r5, #0
    df18:	0a00004c 	beq	e050 <pvPortMalloc+0x154>
    df1c:	e593600c 	ldr	r6, [r3, #12]
    df20:	e2974000 	adds	r4, r7, #0
    df24:	e0072006 	and	r2, r7, r6
    df28:	13a04001 	movne	r4, #1
    df2c:	e3520000 	cmp	r2, #0
    df30:	13a04000 	movne	r4, #0
    df34:	e3540000 	cmp	r4, #0
    df38:	0a000027 	beq	dfdc <pvPortMalloc+0xe0>
    df3c:	e2870008 	add	r0, r7, #8
    df40:	e3100007 	tst	r0, #7
    df44:	13c00007 	bicne	r0, r0, #7
    df48:	12800008 	addne	r0, r0, #8
    df4c:	e3500000 	cmp	r0, #0
    df50:	0a000058 	beq	e0b8 <pvPortMalloc+0x1bc>
    df54:	e301c40c 	movw	ip, #5132	; 0x140c
    df58:	e340c004 	movt	ip, #4
    df5c:	e59ce094 	ldr	lr, [ip, #148]	; 0x94
    df60:	e150000e 	cmp	r0, lr
    df64:	8a000053 	bhi	e0b8 <pvPortMalloc+0x1bc>
    df68:	e5933000 	ldr	r3, [r3]
    df6c:	e301148c 	movw	r1, #5260	; 0x148c
    df70:	e3401002 	movt	r1, #2
    df74:	ea000004 	b	df8c <pvPortMalloc+0x90>
    df78:	e5932000 	ldr	r2, [r3]
    df7c:	e3520000 	cmp	r2, #0
    df80:	0a000004 	beq	df98 <pvPortMalloc+0x9c>
    df84:	e1a01003 	mov	r1, r3
    df88:	e1a03002 	mov	r3, r2
    df8c:	e5932004 	ldr	r2, [r3, #4]
    df90:	e1500002 	cmp	r0, r2
    df94:	8afffff7 	bhi	df78 <pvPortMalloc+0x7c>
    df98:	e1530005 	cmp	r3, r5
    df9c:	0a000045 	beq	e0b8 <pvPortMalloc+0x1bc>
    dfa0:	e5932000 	ldr	r2, [r3]
    dfa4:	e2834008 	add	r4, r3, #8
    dfa8:	e5812000 	str	r2, [r1]
    dfac:	e5931004 	ldr	r1, [r3, #4]
    dfb0:	e0412000 	sub	r2, r1, r0
    dfb4:	e3520010 	cmp	r2, #16
    dfb8:	8a00000a 	bhi	dfe8 <pvPortMalloc+0xec>
    dfbc:	e59c0090 	ldr	r0, [ip, #144]	; 0x90
    dfc0:	e04e2001 	sub	r2, lr, r1
    dfc4:	e1520000 	cmp	r2, r0
    dfc8:	e58c2094 	str	r2, [ip, #148]	; 0x94
    dfcc:	358c2090 	strcc	r2, [ip, #144]	; 0x90
    dfd0:	e3a02000 	mov	r2, #0
    dfd4:	e1816006 	orr	r6, r1, r6
    dfd8:	e8830044 	stm	r3, {r2, r6}
    dfdc:	ebfff5de 	bl	b75c <xTaskResumeAll>
    dfe0:	e1a00004 	mov	r0, r4
    dfe4:	e8bd81f0 	pop	{r4, r5, r6, r7, r8, pc}
    dfe8:	e0837000 	add	r7, r3, r0
    dfec:	e301148c 	movw	r1, #5260	; 0x148c
    dff0:	e3401002 	movt	r1, #2
    dff4:	e5872004 	str	r2, [r7, #4]
    dff8:	e5830004 	str	r0, [r3, #4]
    dffc:	ea000000 	b	e004 <pvPortMalloc+0x108>
    e000:	e1a01002 	mov	r1, r2
    e004:	e5912000 	ldr	r2, [r1]
    e008:	e1570002 	cmp	r7, r2
    e00c:	8afffffb 	bhi	e000 <pvPortMalloc+0x104>
    e010:	e5910004 	ldr	r0, [r1, #4]
    e014:	e0818000 	add	r8, r1, r0
    e018:	e1570008 	cmp	r7, r8
    e01c:	05978004 	ldreq	r8, [r7, #4]
    e020:	01a07001 	moveq	r7, r1
    e024:	15970004 	ldrne	r0, [r7, #4]
    e028:	00800008 	addeq	r0, r0, r8
    e02c:	e0878000 	add	r8, r7, r0
    e030:	05810004 	streq	r0, [r1, #4]
    e034:	e1520008 	cmp	r2, r8
    e038:	0a000020 	beq	e0c0 <pvPortMalloc+0x1c4>
    e03c:	e5872000 	str	r2, [r7]
    e040:	e1510007 	cmp	r1, r7
    e044:	15817000 	strne	r7, [r1]
    e048:	e5931004 	ldr	r1, [r3, #4]
    e04c:	eaffffda 	b	dfbc <pvPortMalloc+0xc0>
    e050:	e2832010 	add	r2, r3, #16
    e054:	e3a0c000 	mov	ip, #0
    e058:	e3120007 	tst	r2, #7
    e05c:	e3a0e102 	mov	lr, #-2147483648	; 0x80000000
    e060:	e583e00c 	str	lr, [r3, #12]
    e064:	12831017 	addne	r1, r3, #23
    e068:	12825802 	addne	r5, r2, #131072	; 0x20000
    e06c:	03a05802 	moveq	r5, #131072	; 0x20000
    e070:	13c12007 	bicne	r2, r1, #7
    e074:	e301140c 	movw	r1, #5132	; 0x140c
    e078:	10455002 	subne	r5, r5, r2
    e07c:	e1a0600e 	mov	r6, lr
    e080:	e0825005 	add	r5, r2, r5
    e084:	e3401004 	movt	r1, #4
    e088:	e2455008 	sub	r5, r5, #8
    e08c:	e3c55007 	bic	r5, r5, #7
    e090:	e0450002 	sub	r0, r5, r2
    e094:	e8831004 	stm	r3, {r2, ip}
    e098:	e5835008 	str	r5, [r3, #8]
    e09c:	e585c004 	str	ip, [r5, #4]
    e0a0:	e585c000 	str	ip, [r5]
    e0a4:	e5810090 	str	r0, [r1, #144]	; 0x90
    e0a8:	e5810094 	str	r0, [r1, #148]	; 0x94
    e0ac:	e5820004 	str	r0, [r2, #4]
    e0b0:	e5825000 	str	r5, [r2]
    e0b4:	eaffff99 	b	df20 <pvPortMalloc+0x24>
    e0b8:	e3a04000 	mov	r4, #0
    e0bc:	eaffffc6 	b	dfdc <pvPortMalloc+0xe0>
    e0c0:	e1520005 	cmp	r2, r5
    e0c4:	0affffdc 	beq	e03c <pvPortMalloc+0x140>
    e0c8:	e5922004 	ldr	r2, [r2, #4]
    e0cc:	e0820000 	add	r0, r2, r0
    e0d0:	e5870004 	str	r0, [r7, #4]
    e0d4:	e5912000 	ldr	r2, [r1]
    e0d8:	e5922000 	ldr	r2, [r2]
    e0dc:	e5872000 	str	r2, [r7]
    e0e0:	eaffffd6 	b	e040 <pvPortMalloc+0x144>

0000e0e4 <vPortFree>:
    e0e4:	e3500000 	cmp	r0, #0
    e0e8:	012fff1e 	bxeq	lr
    e0ec:	e92d4070 	push	{r4, r5, r6, lr}
    e0f0:	e301448c 	movw	r4, #5260	; 0x148c
    e0f4:	e3404002 	movt	r4, #2
    e0f8:	e5103004 	ldr	r3, [r0, #-4]
    e0fc:	e594200c 	ldr	r2, [r4, #12]
    e100:	e1130002 	tst	r3, r2
    e104:	08bd8070 	popeq	{r4, r5, r6, pc}
    e108:	e5101008 	ldr	r1, [r0, #-8]
    e10c:	e3510000 	cmp	r1, #0
    e110:	18bd8070 	popne	{r4, r5, r6, pc}
    e114:	e1c33002 	bic	r3, r3, r2
    e118:	e1a05000 	mov	r5, r0
    e11c:	e5003004 	str	r3, [r0, #-4]
    e120:	e2406008 	sub	r6, r0, #8
    e124:	ebfff51f 	bl	b5a8 <vTaskSuspendAll>
    e128:	e5150004 	ldr	r0, [r5, #-4]
    e12c:	e301340c 	movw	r3, #5132	; 0x140c
    e130:	e3403004 	movt	r3, #4
    e134:	e1a02004 	mov	r2, r4
    e138:	e5931094 	ldr	r1, [r3, #148]	; 0x94
    e13c:	e0811000 	add	r1, r1, r0
    e140:	e5831094 	str	r1, [r3, #148]	; 0x94
    e144:	ea000000 	b	e14c <vPortFree+0x68>
    e148:	e1a02003 	mov	r2, r3
    e14c:	e5923000 	ldr	r3, [r2]
    e150:	e1560003 	cmp	r6, r3
    e154:	8afffffb 	bhi	e148 <vPortFree+0x64>
    e158:	e5921004 	ldr	r1, [r2, #4]
    e15c:	e082c001 	add	ip, r2, r1
    e160:	e156000c 	cmp	r6, ip
    e164:	00800001 	addeq	r0, r0, r1
    e168:	01a06002 	moveq	r6, r2
    e16c:	e0861000 	add	r1, r6, r0
    e170:	05820004 	streq	r0, [r2, #4]
    e174:	e1530001 	cmp	r3, r1
    e178:	0a000004 	beq	e190 <vPortFree+0xac>
    e17c:	e5863000 	str	r3, [r6]
    e180:	e1520006 	cmp	r2, r6
    e184:	15826000 	strne	r6, [r2]
    e188:	e8bd4070 	pop	{r4, r5, r6, lr}
    e18c:	eafff572 	b	b75c <xTaskResumeAll>
    e190:	e5941008 	ldr	r1, [r4, #8]
    e194:	e1530001 	cmp	r3, r1
    e198:	0afffff7 	beq	e17c <vPortFree+0x98>
    e19c:	e5933004 	ldr	r3, [r3, #4]
    e1a0:	e0830000 	add	r0, r3, r0
    e1a4:	e5860004 	str	r0, [r6, #4]
    e1a8:	e5923000 	ldr	r3, [r2]
    e1ac:	e5933000 	ldr	r3, [r3]
    e1b0:	e5863000 	str	r3, [r6]
    e1b4:	eafffff1 	b	e180 <vPortFree+0x9c>

0000e1b8 <memcpy>:
    e1b8:	4684      	mov	ip, r0
    e1ba:	ea41 0300 	orr.w	r3, r1, r0
    e1be:	f013 0303 	ands.w	r3, r3, #3
    e1c2:	d149      	bne.n	e258 <memcpy+0xa0>
    e1c4:	3a40      	subs	r2, #64	; 0x40
    e1c6:	d323      	bcc.n	e210 <memcpy+0x58>
    e1c8:	680b      	ldr	r3, [r1, #0]
    e1ca:	6003      	str	r3, [r0, #0]
    e1cc:	684b      	ldr	r3, [r1, #4]
    e1ce:	6043      	str	r3, [r0, #4]
    e1d0:	688b      	ldr	r3, [r1, #8]
    e1d2:	6083      	str	r3, [r0, #8]
    e1d4:	68cb      	ldr	r3, [r1, #12]
    e1d6:	60c3      	str	r3, [r0, #12]
    e1d8:	690b      	ldr	r3, [r1, #16]
    e1da:	6103      	str	r3, [r0, #16]
    e1dc:	694b      	ldr	r3, [r1, #20]
    e1de:	6143      	str	r3, [r0, #20]
    e1e0:	698b      	ldr	r3, [r1, #24]
    e1e2:	6183      	str	r3, [r0, #24]
    e1e4:	69cb      	ldr	r3, [r1, #28]
    e1e6:	61c3      	str	r3, [r0, #28]
    e1e8:	6a0b      	ldr	r3, [r1, #32]
    e1ea:	6203      	str	r3, [r0, #32]
    e1ec:	6a4b      	ldr	r3, [r1, #36]	; 0x24
    e1ee:	6243      	str	r3, [r0, #36]	; 0x24
    e1f0:	6a8b      	ldr	r3, [r1, #40]	; 0x28
    e1f2:	6283      	str	r3, [r0, #40]	; 0x28
    e1f4:	6acb      	ldr	r3, [r1, #44]	; 0x2c
    e1f6:	62c3      	str	r3, [r0, #44]	; 0x2c
    e1f8:	6b0b      	ldr	r3, [r1, #48]	; 0x30
    e1fa:	6303      	str	r3, [r0, #48]	; 0x30
    e1fc:	6b4b      	ldr	r3, [r1, #52]	; 0x34
    e1fe:	6343      	str	r3, [r0, #52]	; 0x34
    e200:	6b8b      	ldr	r3, [r1, #56]	; 0x38
    e202:	6383      	str	r3, [r0, #56]	; 0x38
    e204:	6bcb      	ldr	r3, [r1, #60]	; 0x3c
    e206:	63c3      	str	r3, [r0, #60]	; 0x3c
    e208:	3040      	adds	r0, #64	; 0x40
    e20a:	3140      	adds	r1, #64	; 0x40
    e20c:	3a40      	subs	r2, #64	; 0x40
    e20e:	d2db      	bcs.n	e1c8 <memcpy+0x10>
    e210:	3230      	adds	r2, #48	; 0x30
    e212:	d30b      	bcc.n	e22c <memcpy+0x74>
    e214:	680b      	ldr	r3, [r1, #0]
    e216:	6003      	str	r3, [r0, #0]
    e218:	684b      	ldr	r3, [r1, #4]
    e21a:	6043      	str	r3, [r0, #4]
    e21c:	688b      	ldr	r3, [r1, #8]
    e21e:	6083      	str	r3, [r0, #8]
    e220:	68cb      	ldr	r3, [r1, #12]
    e222:	60c3      	str	r3, [r0, #12]
    e224:	3010      	adds	r0, #16
    e226:	3110      	adds	r1, #16
    e228:	3a10      	subs	r2, #16
    e22a:	d2f3      	bcs.n	e214 <memcpy+0x5c>
    e22c:	320c      	adds	r2, #12
    e22e:	d305      	bcc.n	e23c <memcpy+0x84>
    e230:	f851 3b04 	ldr.w	r3, [r1], #4
    e234:	f840 3b04 	str.w	r3, [r0], #4
    e238:	3a04      	subs	r2, #4
    e23a:	d2f9      	bcs.n	e230 <memcpy+0x78>
    e23c:	3204      	adds	r2, #4
    e23e:	d008      	beq.n	e252 <memcpy+0x9a>
    e240:	07d2      	lsls	r2, r2, #31
    e242:	bf1c      	itt	ne
    e244:	f811 3b01 	ldrbne.w	r3, [r1], #1
    e248:	f800 3b01 	strbne.w	r3, [r0], #1
    e24c:	d301      	bcc.n	e252 <memcpy+0x9a>
    e24e:	880b      	ldrh	r3, [r1, #0]
    e250:	8003      	strh	r3, [r0, #0]
    e252:	4660      	mov	r0, ip
    e254:	4770      	bx	lr
    e256:	bf00      	nop
    e258:	2a08      	cmp	r2, #8
    e25a:	d313      	bcc.n	e284 <memcpy+0xcc>
    e25c:	078b      	lsls	r3, r1, #30
    e25e:	d0b1      	beq.n	e1c4 <memcpy+0xc>
    e260:	f010 0303 	ands.w	r3, r0, #3
    e264:	d0ae      	beq.n	e1c4 <memcpy+0xc>
    e266:	f1c3 0304 	rsb	r3, r3, #4
    e26a:	1ad2      	subs	r2, r2, r3
    e26c:	07db      	lsls	r3, r3, #31
    e26e:	bf1c      	itt	ne
    e270:	f811 3b01 	ldrbne.w	r3, [r1], #1
    e274:	f800 3b01 	strbne.w	r3, [r0], #1
    e278:	d3a4      	bcc.n	e1c4 <memcpy+0xc>
    e27a:	f831 3b02 	ldrh.w	r3, [r1], #2
    e27e:	f820 3b02 	strh.w	r3, [r0], #2
    e282:	e79f      	b.n	e1c4 <memcpy+0xc>
    e284:	3a04      	subs	r2, #4
    e286:	d3d9      	bcc.n	e23c <memcpy+0x84>
    e288:	3a01      	subs	r2, #1
    e28a:	f811 3b01 	ldrb.w	r3, [r1], #1
    e28e:	f800 3b01 	strb.w	r3, [r0], #1
    e292:	d2f9      	bcs.n	e288 <memcpy+0xd0>
    e294:	780b      	ldrb	r3, [r1, #0]
    e296:	7003      	strb	r3, [r0, #0]
    e298:	784b      	ldrb	r3, [r1, #1]
    e29a:	7043      	strb	r3, [r0, #1]
    e29c:	788b      	ldrb	r3, [r1, #2]
    e29e:	7083      	strb	r3, [r0, #2]
    e2a0:	4660      	mov	r0, ip
    e2a2:	4770      	bx	lr

0000e2a4 <memset>:
    e2a4:	b4f0      	push	{r4, r5, r6, r7}
    e2a6:	0786      	lsls	r6, r0, #30
    e2a8:	d04a      	beq.n	e340 <memset+0x9c>
    e2aa:	1e54      	subs	r4, r2, #1
    e2ac:	2a00      	cmp	r2, #0
    e2ae:	d045      	beq.n	e33c <memset+0x98>
    e2b0:	b2ca      	uxtb	r2, r1
    e2b2:	4603      	mov	r3, r0
    e2b4:	e002      	b.n	e2bc <memset+0x18>
    e2b6:	f114 34ff 	adds.w	r4, r4, #4294967295	; 0xffffffff
    e2ba:	d33f      	bcc.n	e33c <memset+0x98>
    e2bc:	f803 2b01 	strb.w	r2, [r3], #1
    e2c0:	079d      	lsls	r5, r3, #30
    e2c2:	d1f8      	bne.n	e2b6 <memset+0x12>
    e2c4:	2c03      	cmp	r4, #3
    e2c6:	d932      	bls.n	e32e <memset+0x8a>
    e2c8:	b2cd      	uxtb	r5, r1
    e2ca:	2c0f      	cmp	r4, #15
    e2cc:	ea45 2505 	orr.w	r5, r5, r5, lsl #8
    e2d0:	ea45 4505 	orr.w	r5, r5, r5, lsl #16
    e2d4:	d91b      	bls.n	e30e <memset+0x6a>
    e2d6:	f1a4 0710 	sub.w	r7, r4, #16
    e2da:	f103 0210 	add.w	r2, r3, #16
    e2de:	f027 060f 	bic.w	r6, r7, #15
    e2e2:	3620      	adds	r6, #32
    e2e4:	441e      	add	r6, r3
    e2e6:	f842 5c10 	str.w	r5, [r2, #-16]
    e2ea:	3210      	adds	r2, #16
    e2ec:	f842 5c1c 	str.w	r5, [r2, #-28]
    e2f0:	f842 5c18 	str.w	r5, [r2, #-24]
    e2f4:	f842 5c14 	str.w	r5, [r2, #-20]
    e2f8:	42b2      	cmp	r2, r6
    e2fa:	d1f4      	bne.n	e2e6 <memset+0x42>
    e2fc:	f004 040f 	and.w	r4, r4, #15
    e300:	f027 070f 	bic.w	r7, r7, #15
    e304:	2c03      	cmp	r4, #3
    e306:	f107 0710 	add.w	r7, r7, #16
    e30a:	443b      	add	r3, r7
    e30c:	d90f      	bls.n	e32e <memset+0x8a>
    e30e:	1f27      	subs	r7, r4, #4
    e310:	461a      	mov	r2, r3
    e312:	f027 0603 	bic.w	r6, r7, #3
    e316:	3604      	adds	r6, #4
    e318:	441e      	add	r6, r3
    e31a:	f842 5b04 	str.w	r5, [r2], #4
    e31e:	4296      	cmp	r6, r2
    e320:	d1fb      	bne.n	e31a <memset+0x76>
    e322:	f027 0703 	bic.w	r7, r7, #3
    e326:	f004 0403 	and.w	r4, r4, #3
    e32a:	3704      	adds	r7, #4
    e32c:	443b      	add	r3, r7
    e32e:	b12c      	cbz	r4, e33c <memset+0x98>
    e330:	b2c9      	uxtb	r1, r1
    e332:	441c      	add	r4, r3
    e334:	f803 1b01 	strb.w	r1, [r3], #1
    e338:	429c      	cmp	r4, r3
    e33a:	d1fb      	bne.n	e334 <memset+0x90>
    e33c:	bcf0      	pop	{r4, r5, r6, r7}
    e33e:	4770      	bx	lr
    e340:	4614      	mov	r4, r2
    e342:	4603      	mov	r3, r0
    e344:	e7be      	b.n	e2c4 <memset+0x20>
    e346:	bf00      	nop

0000e348 <strlen>:
    e348:	f020 0103 	bic.w	r1, r0, #3
    e34c:	f010 0003 	ands.w	r0, r0, #3
    e350:	f1c0 0000 	rsb	r0, r0, #0
    e354:	f851 3b04 	ldr.w	r3, [r1], #4
    e358:	f100 0c04 	add.w	ip, r0, #4
    e35c:	ea4f 0ccc 	mov.w	ip, ip, lsl #3
    e360:	f06f 0200 	mvn.w	r2, #0
    e364:	bf1c      	itt	ne
    e366:	fa22 f20c 	lsrne.w	r2, r2, ip
    e36a:	4313      	orrne	r3, r2
    e36c:	f04f 0c01 	mov.w	ip, #1
    e370:	ea4c 2c0c 	orr.w	ip, ip, ip, lsl #8
    e374:	ea4c 4c0c 	orr.w	ip, ip, ip, lsl #16
    e378:	eba3 020c 	sub.w	r2, r3, ip
    e37c:	ea22 0203 	bic.w	r2, r2, r3
    e380:	ea12 12cc 	ands.w	r2, r2, ip, lsl #7
    e384:	bf04      	itt	eq
    e386:	f851 3b04 	ldreq.w	r3, [r1], #4
    e38a:	3004      	addeq	r0, #4
    e38c:	d0f4      	beq.n	e378 <strlen+0x30>
    e38e:	f1c2 0100 	rsb	r1, r2, #0
    e392:	ea02 0201 	and.w	r2, r2, r1
    e396:	fab2 f282 	clz	r2, r2
    e39a:	f1c2 021f 	rsb	r2, r2, #31
    e39e:	eb00 00d2 	add.w	r0, r0, r2, lsr #3
    e3a2:	4770      	bx	lr
